Certificate:
    Data:
        Version: 3 (0x2)
        Serial Number: 15624081837803162867 (0xd8d3e3a6cbe3ccf3)
    Signature Algorithm: sha256WithRSAEncryption
        Issuer: C=FI, O=w1.fi, CN=Root CA
        Validity
            Not Before: Dec 23 19:37:36 2015 GMT
            Not After : Dec 22 19:37:36 2025 GMT
        Subject: C=FI, O=w1.fi, CN=Server Intermediate CA
        Subject Public Key Info:
            Public Key Algorithm: rsaEncryption
                Public-Key: (2048 bit)
                Modulus:
                    00:de:58:ac:e3:d8:7e:40:f6:84:2a:49:24:49:5a:
                    f7:c8:23:08:b9:6c:d9:07:01:69:8f:77:28:71:42:
                    a2:eb:ae:86:10:c6:31:61:9a:14:88:44:0a:68:bf:
                    6e:a2:46:41:e9:6f:a2:89:fb:0b:f3:e1:b8:30:bf:
                    e5:80:5e:f9:61:8d:6e:ac:e2:f7:28:e7:9e:44:28:
                    b8:e4:6e:87:76:a9:d7:ac:ed:11:3f:de:c3:dd:41:
                    c3:45:82:09:c3:a7:4c:e6:df:2b:88:1e:44:ce:e2:
                    a7:29:53:f6:13:96:ad:6c:2e:93:00:28:42:77:bc:
                    73:6e:86:e7:5b:e8:eb:e9:37:1d:63:e7:ea:05:5a:
                    71:28:f0:81:0b:4c:3f:dd:73:f8:db:13:a8:f0:5f:
                    6f:6f:e5:1b:c7:94:7f:57:c5:dc:66:26:0c:5a:71:
                    7a:e3:d2:3e:7a:a6:59:46:03:61:78:89:84:3d:ef:
                    22:9c:f8:c2:22:75:c4:0c:ef:fb:e4:fa:6f:b8:11:
                    db:aa:92:9b:6c:23:4e:6e:e5:55:d2:41:47:18:95:
                    c6:7d:17:be:6d:ab:39:a1:38:61:fd:f9:22:95:69:
                    f3:9e:28:fd:8a:c8:58:72:3c:91:c2:22:d9:fb:b2:
                    54:0f:9a:17:27:88:df:60:f5:de:fc:95:9f:25:c6:
                    64:81
                Exponent: 65537 (0x10001)
        X509v3 extensions:
            X509v3 Subject Key Identifier: 
                84:09:8B:55:1F:7D:2F:0F:28:D7:9C:EC:54:4E:9F:11:97:55:D9:B9
            X509v3 Authority Key Identifier: 
                keyid:B8:92:DE:FD:8A:18:B3:30:C3:9F:55:F3:33:5D:B4:C8:29:8A:41:14

            X509v3 Basic Constraints: critical
                CA:TRUE, pathlen:0
            X509v3 Key Usage: critical
                Certificate Sign, CRL Sign
    Signature Algorithm: sha256WithRSAEncryption
         bd:22:63:3d:a7:e5:ce:c9:f5:66:1f:77:5f:d5:24:e3:68:dc:
         a4:07:80:3e:5e:b1:2c:96:88:39:ad:00:4c:aa:9d:0b:ed:f3:
         6d:df:9d:2f:97:d2:77:8b:ba:d0:9c:0f:a6:5e:60:b8:0f:e1:
         96:b1:61:25:48:69:81:64:a8:5c:82:58:0b:f3:d0:a9:4e:8b:
         90:fc:2f:67:57:da:72:dc:3c:eb:c2:20:19:05:8d:42:0d:14:
         cf:00:db:59:00:ea:f0:76:3e:ca:85:b1:05:e5:b8:5f:0b:46:
         c7:3c:a1:d9:5c:4d:b9:24:e7:d6:2b:3d:0d:eb:c3:88:d8:3a:
         f6:60
-----BEGIN CERTIFICATE-----
MIIC1TCCAj6gAwIBAgIJANjT46bL48zzMA0GCSqGSIb3DQEBCwUAMC8xCzAJBgNV
BAYTAkZJMQ4wDAYDVQQKDAV3MS5maTEQMA4GA1UEAwwHUm9vdCBDQTAeFw0xNTEy
MjMxOTM3MzZaFw0yNTEyMjIxOTM3MzZaMD4xCzAJBgNVBAYTAkZJMQ4wDAYDVQQK
DAV3MS5maTEfMB0GA1UEAwwWU2VydmVyIEludGVybWVkaWF0ZSBDQTCCASIwDQYJ
KoZIhvcNAQEBBQADggEPADCCAQoCggEBAN5YrOPYfkD2hCpJJEla98gjCLls2QcB
aY93KHFCouuuhhDGMWGaFIhECmi/bqJGQelvoon7C/PhuDC/5YBe+WGNbqzi9yjn
nkQouORuh3ap16ztET/ew91Bw0WCCcOnTObfK4geRM7ipylT9hOWrWwukwAoQne8
c26G51vo6+k3HWPn6gVacSjwgQtMP91z+NsTqPBfb2/lG8eUf1fF3GYmDFpxeuPS
PnqmWUYDYXiJhD3vIpz4wiJ1xAzv++T6b7gR26qSm2wjTm7lVdJBRxiVxn0Xvm2r
OaE4Yf35IpVp854o/YrIWHI8kcIi2fuyVA+aFyeI32D13vyVnyXGZIECAwEAAaNm
MGQwHQYDVR0OBBYEFIQJi1UffS8PKNec7FROnxGXVdm5MB8GA1UdIwQYMBaAFLiS
3v2KGLMww59V8zNdtMgpikEUMBIGA1UdEwEB/wQIMAYBAf8CAQAwDgYDVR0PAQH/
BAQDAgEGMA0GCSqGSIb3DQEBCwUAA4GBAL0iYz2n5c7J9WYfd1/VJONo3KQHgD5e
sSyWiDmtAEyqnQvt823fnS+X0neLutCcD6ZeYLgP4ZaxYSVIaYFkqFyCWAvz0KlO
i5D8L2dX2nLcPOvCIBkFjUINFM8A21kA6vB2PsqFsQXluF8LRsc8odlcTbkk59Yr
PQ3rw4jYOvZg
-----END CERTIFICATE-----
