Certificate:
    Data:
        Version: 3 (0x2)
        Serial Number: 15624081837803162867 (0xd8d3e3a6cbe3ccf3)
    Signature Algorithm: sha256WithRSAEncryption
        Issuer: C=FI, O=w1.fi, CN=Root CA
        Validity
            Not Before: Dec 23 19:37:36 2015 GMT
            Not After : Dec 22 19:37:36 2025 GMT
        Subject: C=FI, O=w1.fi, CN=Server Intermediate CA
        Subject Public Key Info:
            Public Key Algorithm: rsaEncryption
                Public-Key: (2048 bit)
                Modulus:
                    00:de:58:ac:e3:d8:7e:40:f6:84:2a:49:24:49:5a:
                    f7:c8:23:08:b9:6c:d9:07:01:69:8f:77:28:71:42:
                    a2:eb:ae:86:10:c6:31:61:9a:14:88:44:0a:68:bf:
                    6e:a2:46:41:e9:6f:a2:89:fb:0b:f3:e1:b8:30:bf:
                    e5:80:5e:f9:61:8d:6e:ac:e2:f7:28:e7:9e:44:28:
                    b8:e4:6e:87:76:a9:d7:ac:ed:11:3f:de:c3:dd:41:
                    c3:45:82:09:c3:a7:4c:e6:df:2b:88:1e:44:ce:e2:
                    a7:29:53:f6:13:96:ad:6c:2e:93:00:28:42:77:bc:
                    73:6e:86:e7:5b:e8:eb:e9:37:1d:63:e7:ea:05:5a:
                    71:28:f0:81:0b:4c:3f:dd:73:f8:db:13:a8:f0:5f:
                    6f:6f:e5:1b:c7:94:7f:57:c5:dc:66:26:0c:5a:71:
                    7a:e3:d2:3e:7a:a6:59:46:03:61:78:89:84:3d:ef:
                    22:9c:f8:c2:22:75:c4:0c:ef:fb:e4:fa:6f:b8:11:
                    db:aa:92:9b:6c:23:4e:6e:e5:55:d2:41:47:18:95:
                    c6:7d:17:be:6d:ab:39:a1:38:61:fd:f9:22:95:69:
                    f3:9e:28:fd:8a:c8:58:72:3c:91:c2:22:d9:fb:b2:
                    54:0f:9a:17:27:88:df:60:f5:de:fc:95:9f:25:c6:
                    64:81
                Exponent: 65537 (0x10001)
        X509v3 extensions:
            X509v3 Subject Key Identifier: 
                84:09:8B:55:1F:7D:2F:0F:28:D7:9C:EC:54:4E:9F:11:97:55:D9:B9
            X509v3 Authority Key Identifier: 
                keyid:B8:92:DE:FD:8A:18:B3:30:C3:9F:55:F3:33:5D:B4:C8:29:8A:41:14

            X509v3 Basic Constraints: critical
                CA:TRUE, pathlen:0
            X509v3 Key Usage: critical
                Certificate Sign, CRL Sign
    Signature Algorithm: sha256WithRSAEncryption
         bd:22:63:3d:a7:e5:ce:c9:f5:66:1f:77:5f:d5:24:e3:68:dc:
         a4:07:80:3e:5e:b1:2c:96:88:39:ad:00:4c:aa:9d:0b:ed:f3:
         6d:df:9d:2f:97:d2:77:8b:ba:d0:9c:0f:a6:5e:60:b8:0f:e1:
         96:b1:61:25:48:69:81:64:a8:5c:82:58:0b:f3:d0:a9:4e:8b:
         90:fc:2f:67:57:da:72:dc:3c:eb:c2:20:19:05:8d:42:0d:14:
         cf:00:db:59:00:ea:f0:76:3e:ca:85:b1:05:e5:b8:5f:0b:46:
         c7:3c:a1:d9:5c:4d:b9:24:e7:d6:2b:3d:0d:eb:c3:88:d8:3a:
         f6:60
-----BEGIN CERTIFICATE-----
MIIC1TCCAj6gAwIBAgIJANjT46bL48zzMA0GCSqGSIb3DQEBCwUAMC8xCzAJBgNV
BAYTAkZJMQ4wDAYDVQQKDAV3MS5maTEQMA4GA1UEAwwHUm9vdCBDQTAeFw0xNTEy
MjMxOTM3MzZaFw0yNTEyMjIxOTM3MzZaMD4xCzAJBgNVBAYTAkZJMQ4wDAYDVQQK
DAV3MS5maTEfMB0GA1UEAwwWU2VydmVyIEludGVybWVkaWF0ZSBDQTCCASIwDQYJ
KoZIhvcNAQEBBQADggEPADCCAQoCggEBAN5YrOPYfkD2hCpJJEla98gjCLls2QcB
aY93KHFCouuuhhDGMWGaFIhECmi/bqJGQelvoon7C/PhuDC/5YBe+WGNbqzi9yjn
nkQouORuh3ap16ztET/ew91Bw0WCCcOnTObfK4geRM7ipylT9hOWrWwukwAoQne8
c26G51vo6+k3HWPn6gVacSjwgQtMP91z+NsTqPBfb2/lG8eUf1fF3GYmDFpxeuPS
PnqmWUYDYXiJhD3vIpz4wiJ1xAzv++T6b7gR26qSm2wjTm7lVdJBRxiVxn0Xvm2r
OaE4Yf35IpVp854o/YrIWHI8kcIi2fuyVA+aFyeI32D13vyVnyXGZIECAwEAAaNm
MGQwHQYDVR0OBBYEFIQJi1UffS8PKNec7FROnxGXVdm5MB8GA1UdIwQYMBaAFLiS
3v2KGLMww59V8zNdtMgpikEUMBIGA1UdEwEB/wQIMAYBAf8CAQAwDgYDVR0PAQH/
BAQDAgEGMA0GCSqGSIb3DQEBCwUAA4GBAL0iYz2n5c7J9WYfd1/VJONo3KQHgD5e
sSyWiDmtAEyqnQvt823fnS+X0neLutCcD6ZeYLgP4ZaxYSVIaYFkqFyCWAvz0KlO
i5D8L2dX2nLcPOvCIBkFjUINFM8A21kA6vB2PsqFsQXluF8LRsc8odlcTbkk59Yr
PQ3rw4jYOvZg
-----END CERTIFICATE-----
Certificate:
    Data:
        Version: 3 (0x2)
        Serial Number: 9232555434986539705 (0x8020a0407f798ab9)
    Signature Algorithm: sha256WithRSAEncryption
        Issuer: C=FI, O=w1.fi, CN=Server Intermediate CA
        Validity
            Not Before: Dec 23 19:37:36 2015 GMT
            Not After : Dec 20 19:37:36 2025 GMT
        Subject: C=FI, O=w1.fi, CN=server-revoked.w1.fi
        Subject Public Key Info:
            Public Key Algorithm: rsaEncryption
                Public-Key: (2048 bit)
                Modulus:
                    00:ac:5c:ae:06:36:4a:65:e0:db:0b:3c:28:13:08:
                    8b:90:66:43:6f:c8:b2:3b:fa:41:bd:1a:10:10:fb:
                    e9:05:6a:ba:42:90:4d:2e:cf:b1:b9:c3:73:f5:fc:
                    ac:4c:18:e9:44:73:69:5e:2d:83:63:d1:29:e5:59:
                    55:a8:bf:b0:1c:7a:0d:17:18:b0:38:21:af:cb:6d:
                    a9:6b:9d:a2:88:0e:1c:ee:1a:a5:9f:3c:27:ea:fe:
                    8f:9b:94:df:12:3c:34:bb:bf:6c:d0:6c:6b:46:ad:
                    bc:ff:88:ae:d8:4d:8b:9f:34:50:25:c4:96:be:25:
                    42:06:c8:b3:8e:21:a5:fd:a3:82:f9:74:78:46:56:
                    8d:0b:f0:c4:fa:1a:0e:f5:34:22:53:fd:43:37:a3:
                    47:fd:9f:a2:bc:d0:60:25:a8:db:93:f7:0c:88:fe:
                    79:52:f2:07:f1:de:fc:66:6e:fe:da:10:76:6c:d0:
                    87:8c:ef:dd:40:6d:82:7c:d1:39:b2:17:d6:07:cf:
                    1a:5a:39:12:ed:49:4f:d9:c7:91:40:ab:73:f7:54:
                    3c:a5:7d:9f:bb:0c:47:77:0e:d9:61:e5:1b:14:65:
                    4e:38:c5:a7:8a:ee:32:be:05:25:94:a0:7f:96:09:
                    59:1b:04:08:42:6b:50:6b:95:7a:78:f6:ec:f4:f6:
                    4d:43
                Exponent: 65537 (0x10001)
        X509v3 extensions:
            X509v3 Basic Constraints: critical
                CA:FALSE
            X509v3 Subject Key Identifier: 
                0D:49:37:45:42:77:90:25:BA:9B:67:DB:F6:DC:61:D2:53:5B:C6:BC
            X509v3 Authority Key Identifier: 
                keyid:84:09:8B:55:1F:7D:2F:0F:28:D7:9C:EC:54:4E:9F:11:97:55:D9:B9

            X509v3 Subject Alternative Name: critical
                DNS:server-revoked.w1.fi
            X509v3 Extended Key Usage: critical
                TLS Web Server Authentication
            X509v3 Key Usage: 
                Digital Signature, Key Encipherment
    Signature Algorithm: sha256WithRSAEncryption
         22:c6:72:08:84:a9:e9:19:77:ea:6a:06:68:43:8b:e7:72:af:
         9c:a2:47:b9:6f:b6:cb:11:17:89:0a:42:52:14:58:9e:3c:01:
         fd:e7:fc:a2:0d:85:a5:b5:8c:27:d5:5e:b2:47:05:05:f9:56:
         b6:0b:e2:28:f3:1d:75:5e:13:eb:ec:a0:76:2b:d9:ed:99:84:
         08:6d:64:71:13:b6:02:81:b3:c2:7e:b8:b6:00:98:4f:26:ea:
         f1:67:5b:35:2a:26:d0:ca:a8:fb:eb:21:fb:f1:d6:5a:63:42:
         01:5f:b3:59:3d:f8:e0:4d:94:3a:3a:82:46:02:9d:81:2c:ef:
         e5:46:c7:99:f4:2f:43:ad:85:fc:2c:ca:0b:6b:48:01:ac:d7:
         f7:da:0e:16:c4:10:18:14:83:9c:85:90:75:ef:66:9f:65:42:
         e5:e7:8c:16:ac:f6:60:61:d7:5f:a0:21:cd:8a:85:d4:a0:f2:
         8e:17:0e:38:5e:31:12:ac:24:b5:67:61:9d:15:84:0b:fc:84:
         8a:d4:29:90:3d:4b:23:48:19:6b:f7:26:1f:fe:b9:b9:f1:6e:
         70:ac:ec:31:60:be:7d:6f:58:7e:c1:47:61:a7:b0:4b:b2:fd:
         62:06:c5:97:43:28:39:a5:c5:60:51:c0:46:9d:6b:e4:1a:ed:
         0c:a6:51:8a
-----BEGIN CERTIFICATE-----
MIIDmDCCAoCgAwIBAgIJAIAgoEB/eYq5MA0GCSqGSIb3DQEBCwUAMD4xCzAJBgNV
BAYTAkZJMQ4wDAYDVQQKDAV3MS5maTEfMB0GA1UEAwwWU2VydmVyIEludGVybWVk
aWF0ZSBDQTAeFw0xNTEyMjMxOTM3MzZaFw0yNTEyMjAxOTM3MzZaMDwxCzAJBgNV
BAYTAkZJMQ4wDAYDVQQKDAV3MS5maTEdMBsGA1UEAwwUc2VydmVyLXJldm9rZWQu
dzEuZmkwggEiMA0GCSqGSIb3DQEBAQUAA4IBDwAwggEKAoIBAQCsXK4GNkpl4NsL
PCgTCIuQZkNvyLI7+kG9GhAQ++kFarpCkE0uz7G5w3P1/KxMGOlEc2leLYNj0Snl
WVWov7Aceg0XGLA4Ia/LbalrnaKIDhzuGqWfPCfq/o+blN8SPDS7v2zQbGtGrbz/
iK7YTYufNFAlxJa+JUIGyLOOIaX9o4L5dHhGVo0L8MT6Gg71NCJT/UM3o0f9n6K8
0GAlqNuT9wyI/nlS8gfx3vxmbv7aEHZs0IeM791AbYJ80TmyF9YHzxpaORLtSU/Z
x5FAq3P3VDylfZ+7DEd3Dtlh5RsUZU44xaeK7jK+BSWUoH+WCVkbBAhCa1BrlXp4
9uz09k1DAgMBAAGjgZowgZcwDAYDVR0TAQH/BAIwADAdBgNVHQ4EFgQUDUk3RUJ3
kCW6m2fb9txh0lNbxrwwHwYDVR0jBBgwFoAUhAmLVR99Lw8o15zsVE6fEZdV2bkw
IgYDVR0RAQH/BBgwFoIUc2VydmVyLXJldm9rZWQudzEuZmkwFgYDVR0lAQH/BAww
CgYIKwYBBQUHAwEwCwYDVR0PBAQDAgWgMA0GCSqGSIb3DQEBCwUAA4IBAQAixnII
hKnpGXfqagZoQ4vncq+coke5b7bLEReJCkJSFFiePAH95/yiDYWltYwn1V6yRwUF
+Va2C+Io8x11XhPr7KB2K9ntmYQIbWRxE7YCgbPCfri2AJhPJurxZ1s1KibQyqj7
6yH78dZaY0IBX7NZPfjgTZQ6OoJGAp2BLO/lRseZ9C9DrYX8LMoLa0gBrNf32g4W
xBAYFIOchZB172afZULl54wWrPZgYddfoCHNioXUoPKOFw44XjESrCS1Z2GdFYQL
/ISK1CmQPUsjSBlr9yYf/rm58W5wrOwxYL59b1h+wUdhp7BLsv1iBsWXQyg5pcVg
UcBGnWvkGu0MplGK
-----END CERTIFICATE-----
