Certificate:
    Data:
        Version: 3 (0x2)
        Serial Number:
            d8:d3:e3:a6:cb:e3:cd:20
        Signature Algorithm: sha256WithRSAEncryption
        Issuer: C=FI, O=w1.fi, CN=Root CA
        Validity
            Not Before: Oct  4 13:02:23 2019 GMT
            Not After : Oct  3 13:02:23 2020 GMT
        Subject: C=FI, O=w1.fi, CN=server3.w1.fi
        Subject Public Key Info:
            Public Key Algorithm: rsaEncryption
                RSA Public-Key: (1024 bit)
                Modulus:
                    00:db:fc:0f:a1:48:87:68:86:c4:9e:7a:f8:18:28:
                    77:6d:a3:58:0f:db:be:6b:d4:43:43:c4:ba:17:37:
                    9b:a8:ff:96:a2:73:14:13:1c:ae:19:0f:81:54:35:
                    10:64:94:e3:64:65:be:9b:0b:16:d2:9e:92:98:77:
                    87:e2:9a:99:fc:1d:57:0c:8a:0d:4c:21:2f:ae:67:
                    d7:63:61:eb:91:5b:58:2f:ad:67:66:65:e4:83:07:
                    ca:6a:36:a5:e6:20:f6:5c:99:27:db:63:e5:86:d8:
                    2b:7c:1d:90:44:81:22:21:77:0a:03:05:c3:eb:63:
                    61:b3:4c:32:c0:87:87:3a:47
                Exponent: 65537 (0x10001)
        X509v3 extensions:
            X509v3 Basic Constraints: 
                CA:FALSE
            X509v3 Subject Key Identifier: 
                8E:9A:4F:4D:46:AD:59:AC:7F:4C:9C:BE:6D:5B:D7:99:63:8D:C7:70
            X509v3 Authority Key Identifier: 
                keyid:B8:92:DE:FD:8A:18:B3:30:C3:9F:55:F3:33:5D:B4:C8:29:8A:41:14

            Authority Information Access: 
                OCSP - URI:http://server.w1.fi:8888/

            X509v3 Extended Key Usage: 
                TLS Web Server Authentication
    Signature Algorithm: sha256WithRSAEncryption
         17:8a:95:bc:a7:76:e0:b7:b6:b6:47:5a:41:44:0f:43:76:1f:
         50:87:f6:64:fe:e9:3a:fb:73:04:df:7b:57:7a:34:ba:ab:bc:
         ab:d1:18:59:bf:6e:9b:4d:8c:3f:15:65:dd:e9:3c:86:01:69:
         d5:2b:c3:23:65:9c:07:ef:4a:52:09:c7:3a:68:8e:14:4d:4a:
         78:23:0c:ec:8d:37:13:2d:ac:ac:6e:d1:f8:5c:a1:1f:50:50:
         00:fd:ab:e9:f6:ae:f2:c4:78:3c:44:e3:5e:b0:c6:6d:a0:06:
         98:c9:e2:d1:9a:d7:8b:09:af:f4:10:06:e1:9f:1e:de:d0:c3:
         b9:1c
-----BEGIN CERTIFICATE-----
MIICfTCCAeagAwIBAgIJANjT46bL480gMA0GCSqGSIb3DQEBCwUAMC8xCzAJBgNV
BAYTAkZJMQ4wDAYDVQQKDAV3MS5maTEQMA4GA1UEAwwHUm9vdCBDQTAeFw0xOTEw
MDQxMzAyMjNaFw0yMDEwMDMxMzAyMjNaMDUxCzAJBgNVBAYTAkZJMQ4wDAYDVQQK
DAV3MS5maTEWMBQGA1UEAwwNc2VydmVyMy53MS5maTCBnzANBgkqhkiG9w0BAQEF
AAOBjQAwgYkCgYEA2/wPoUiHaIbEnnr4GCh3baNYD9u+a9RDQ8S6FzebqP+WonMU
ExyuGQ+BVDUQZJTjZGW+mwsW0p6SmHeH4pqZ/B1XDIoNTCEvrmfXY2HrkVtYL61n
ZmXkgwfKajal5iD2XJkn22PlhtgrfB2QRIEiIXcKAwXD62Nhs0wywIeHOkcCAwEA
AaOBmjCBlzAJBgNVHRMEAjAAMB0GA1UdDgQWBBSOmk9NRq1ZrH9MnL5tW9eZY43H
cDAfBgNVHSMEGDAWgBS4kt79ihizMMOfVfMzXbTIKYpBFDA1BggrBgEFBQcBAQQp
MCcwJQYIKwYBBQUHMAGGGWh0dHA6Ly9zZXJ2ZXIudzEuZmk6ODg4OC8wEwYDVR0l
BAwwCgYIKwYBBQUHAwEwDQYJKoZIhvcNAQELBQADgYEAF4qVvKd24Le2tkdaQUQP
Q3YfUIf2ZP7pOvtzBN97V3o0uqu8q9EYWb9um02MPxVl3ek8hgFp1SvDI2WcB+9K
UgnHOmiOFE1KeCMM7I03Ey2srG7R+FyhH1BQAP2r6fau8sR4PETjXrDGbaAGmMni
0ZrXiwmv9BAG4Z8e3tDDuRw=
-----END CERTIFICATE-----
