Certificate:
    Data:
        Version: 3 (0x2)
        Serial Number: 15624081837803162868 (0xd8d3e3a6cbe3ccf4)
    Signature Algorithm: sha256WithRSAEncryption
        Issuer: C=FI, O=w1.fi, CN=Root CA
        Validity
            Not Before: Dec 23 19:37:36 2015 GMT
            Not After : Dec 22 19:37:36 2025 GMT
        Subject: C=FI, O=w1.fi, CN=User Intermediate CA
        Subject Public Key Info:
            Public Key Algorithm: rsaEncryption
                Public-Key: (2048 bit)
                Modulus:
                    00:c3:2a:0d:f4:66:23:5d:96:91:f7:a0:be:b1:b0:
                    f7:9e:ae:ea:a6:72:91:f5:70:65:57:91:49:55:59:
                    67:bb:d7:f5:9e:bc:66:b2:bf:cf:95:31:32:ae:db:
                    9a:3b:43:e8:a5:8d:1f:8b:3b:e6:e8:e3:3b:b2:9d:
                    f0:58:62:ea:a3:8a:6f:c8:ed:01:ca:27:74:1c:0e:
                    9e:28:5c:43:98:db:14:b8:72:07:9f:6b:27:28:25:
                    ce:a5:91:b7:b7:23:9a:35:ef:0e:b7:fc:9f:69:4d:
                    10:2e:81:ab:9d:04:ba:2f:b4:eb:61:7d:fd:68:a1:
                    11:6f:f4:16:42:16:99:20:38:24:04:2d:39:7c:74:
                    67:14:b9:aa:26:7a:b2:d9:1e:ce:cd:8b:bc:8d:e3:
                    c7:58:9c:4a:f9:3a:7e:6c:38:f8:5f:1c:ec:05:4c:
                    e5:56:64:d4:08:d8:fa:db:17:d9:a1:e4:cf:b4:9d:
                    df:99:50:ce:fa:a4:af:af:c6:f7:f2:0e:c2:c5:7b:
                    6c:f9:6c:eb:17:e5:c8:6e:5a:bf:eb:a6:b8:c0:f7:
                    43:81:88:c3:d8:aa:a9:60:ac:a7:45:3f:5d:cb:8d:
                    6c:48:92:2b:04:5a:c4:a8:32:b3:e9:6f:fe:8d:2d:
                    65:c0:ea:c5:09:b2:30:b1:a3:2e:db:22:8a:49:b1:
                    fe:4f
                Exponent: 65537 (0x10001)
        X509v3 extensions:
            X509v3 Subject Key Identifier: 
                AC:C4:F6:07:9E:B2:E5:F1:66:7C:40:05:08:AA:DC:EF:8A:60:DA:C1
            X509v3 Authority Key Identifier: 
                keyid:B8:92:DE:FD:8A:18:B3:30:C3:9F:55:F3:33:5D:B4:C8:29:8A:41:14

            X509v3 Basic Constraints: critical
                CA:TRUE, pathlen:0
            X509v3 Key Usage: critical
                Certificate Sign, CRL Sign
    Signature Algorithm: sha256WithRSAEncryption
         0d:60:2b:fa:00:f2:5a:90:31:96:50:c8:9e:7f:60:02:99:c6:
         31:d4:93:86:9e:4c:24:15:b6:b2:31:49:21:79:ce:7f:92:86:
         1e:83:d8:a0:37:05:1b:89:2b:ef:0b:83:21:b0:37:8d:2f:7b:
         6b:7d:c6:04:1e:a2:c8:59:be:52:bf:47:ee:46:cb:45:8d:1f:
         7a:e4:d4:e5:54:60:5f:46:b0:ac:68:8a:26:57:ea:48:45:c1:
         07:7d:ee:10:9e:94:87:4c:7e:26:2e:f8:ad:03:e5:03:86:09:
         3e:48:0c:e0:04:2f:22:b4:e0:3a:b0:72:8c:e2:40:d2:cd:fb:
         8f:fa
-----BEGIN CERTIFICATE-----
MIIC0zCCAjygAwIBAgIJANjT46bL48z0MA0GCSqGSIb3DQEBCwUAMC8xCzAJBgNV
BAYTAkZJMQ4wDAYDVQQKDAV3MS5maTEQMA4GA1UEAwwHUm9vdCBDQTAeFw0xNTEy
MjMxOTM3MzZaFw0yNTEyMjIxOTM3MzZaMDwxCzAJBgNVBAYTAkZJMQ4wDAYDVQQK
DAV3MS5maTEdMBsGA1UEAwwUVXNlciBJbnRlcm1lZGlhdGUgQ0EwggEiMA0GCSqG
SIb3DQEBAQUAA4IBDwAwggEKAoIBAQDDKg30ZiNdlpH3oL6xsPeeruqmcpH1cGVX
kUlVWWe71/WevGayv8+VMTKu25o7Q+iljR+LO+bo4zuynfBYYuqjim/I7QHKJ3Qc
Dp4oXEOY2xS4cgefaycoJc6lkbe3I5o17w63/J9pTRAugaudBLovtOthff1ooRFv
9BZCFpkgOCQELTl8dGcUuaomerLZHs7Ni7yN48dYnEr5On5sOPhfHOwFTOVWZNQI
2PrbF9mh5M+0nd+ZUM76pK+vxvfyDsLFe2z5bOsX5chuWr/rprjA90OBiMPYqqlg
rKdFP13LjWxIkisEWsSoMrPpb/6NLWXA6sUJsjCxoy7bIopJsf5PAgMBAAGjZjBk
MB0GA1UdDgQWBBSsxPYHnrLl8WZ8QAUIqtzvimDawTAfBgNVHSMEGDAWgBS4kt79
ihizMMOfVfMzXbTIKYpBFDASBgNVHRMBAf8ECDAGAQH/AgEAMA4GA1UdDwEB/wQE
AwIBBjANBgkqhkiG9w0BAQsFAAOBgQANYCv6APJakDGWUMief2ACmcYx1JOGnkwk
FbayMUkhec5/koYeg9igNwUbiSvvC4MhsDeNL3trfcYEHqLIWb5Sv0fuRstFjR96
5NTlVGBfRrCsaIomV+pIRcEHfe4QnpSHTH4mLvitA+UDhgk+SAzgBC8itOA6sHKM
4kDSzfuP+g==
-----END CERTIFICATE-----
Certificate:
    Data:
        Version: 3 (0x2)
        Serial Number: 15624081837803162817 (0xd8d3e3a6cbe3ccc1)
    Signature Algorithm: sha1WithRSAEncryption
        Issuer: C=FI, O=w1.fi, CN=Root CA
        Validity
            Not Before: Jun 29 16:41:22 2013 GMT
            Not After : Jun 27 16:41:22 2023 GMT
        Subject: C=FI, O=w1.fi, CN=Root CA
        Subject Public Key Info:
            Public Key Algorithm: rsaEncryption
                Public-Key: (1024 bit)
                Modulus:
                    00:be:1e:86:e4:79:03:c1:d1:94:d5:d4:b3:b1:28:
                    90:76:fb:b8:a6:cd:6d:1c:d1:48:f4:08:9a:67:ff:
                    f9:a6:54:b1:19:29:df:29:1b:cd:f1:6f:66:01:e7:
                    db:79:ce:c0:39:2a:25:13:26:94:0c:2c:7b:5a:2c:
                    81:0f:94:ee:51:d0:75:e6:46:db:17:46:a7:15:8b:
                    0e:57:0f:b0:54:76:63:12:ca:86:18:bc:1a:c3:16:
                    c0:70:09:d6:6b:43:39:b8:98:29:46:ac:cb:6a:ad:
                    38:88:3b:07:dc:81:cd:3a:f6:1d:f6:2f:ef:1d:d7:
                    ae:8a:b6:d1:e7:b3:15:02:b9
                Exponent: 65537 (0x10001)
        X509v3 extensions:
            X509v3 Subject Key Identifier: 
                B8:92:DE:FD:8A:18:B3:30:C3:9F:55:F3:33:5D:B4:C8:29:8A:41:14
            X509v3 Authority Key Identifier: 
                keyid:B8:92:DE:FD:8A:18:B3:30:C3:9F:55:F3:33:5D:B4:C8:29:8A:41:14

            X509v3 Basic Constraints: 
                CA:TRUE
    Signature Algorithm: sha1WithRSAEncryption
         1a:cf:77:60:44:43:c4:55:0e:99:e0:89:aa:b9:d3:7b:32:b7:
         5c:9c:7c:ca:fe:8c:d4:94:c6:5e:f3:83:19:5f:29:59:68:a4:
         4f:dc:04:2e:b8:71:c0:6d:3b:ae:01:e4:b9:88:99:cc:ce:82:
         be:6a:28:c2:ac:6a:94:c6:87:90:ed:85:3c:10:71:c5:ff:3c:
         70:64:e2:41:62:31:ea:86:7b:11:8c:93:ea:c6:f3:f3:4e:f9:
         d4:f2:81:90:d7:f4:fa:a1:91:6e:d4:dd:15:3e:26:3b:ac:1e:
         c3:c2:1f:ed:bb:34:bf:cb:b2:67:c6:c6:51:e8:51:22:b4:f3:
         92:e8
-----BEGIN CERTIFICATE-----
MIICLDCCAZWgAwIBAgIJANjT46bL48zBMA0GCSqGSIb3DQEBBQUAMC8xCzAJBgNV
BAYTAkZJMQ4wDAYDVQQKDAV3MS5maTEQMA4GA1UEAwwHUm9vdCBDQTAeFw0xMzA2
MjkxNjQxMjJaFw0yMzA2MjcxNjQxMjJaMC8xCzAJBgNVBAYTAkZJMQ4wDAYDVQQK
DAV3MS5maTEQMA4GA1UEAwwHUm9vdCBDQTCBnzANBgkqhkiG9w0BAQEFAAOBjQAw
gYkCgYEAvh6G5HkDwdGU1dSzsSiQdvu4ps1tHNFI9AiaZ//5plSxGSnfKRvN8W9m
Aefbec7AOSolEyaUDCx7WiyBD5TuUdB15kbbF0anFYsOVw+wVHZjEsqGGLwawxbA
cAnWa0M5uJgpRqzLaq04iDsH3IHNOvYd9i/vHdeuirbR57MVArkCAwEAAaNQME4w
HQYDVR0OBBYEFLiS3v2KGLMww59V8zNdtMgpikEUMB8GA1UdIwQYMBaAFLiS3v2K
GLMww59V8zNdtMgpikEUMAwGA1UdEwQFMAMBAf8wDQYJKoZIhvcNAQEFBQADgYEA
Gs93YERDxFUOmeCJqrnTezK3XJx8yv6M1JTGXvODGV8pWWikT9wELrhxwG07rgHk
uYiZzM6CvmoowqxqlMaHkO2FPBBxxf88cGTiQWIx6oZ7EYyT6sbz80751PKBkNf0
+qGRbtTdFT4mO6wew8If7bs0v8uyZ8bGUehRIrTzkug=
-----END CERTIFICATE-----
