Certificate:
    Data:
        Version: 3 (0x2)
        Serial Number: 15624081837803162842 (0xd8d3e3a6cbe3ccda)
    Signature Algorithm: sha256WithRSAEncryption
        Issuer: C=FI, O=w1.fi, CN=Root CA
        Validity
            Not Before: May 24 08:13:55 2015 GMT
            Not After : May 11 08:13:55 2065 GMT
        Subject: C=FI, O=w1.fi, CN=server7.w1.fi
        Subject Public Key Info:
            Public Key Algorithm: rsaEncryption
                Public-Key: (4096 bit)
                Modulus:
                    00:c0:fa:17:27:eb:8e:47:7f:65:71:0e:e3:46:47:
                    6e:fd:d6:19:f1:e0:bd:1b:7e:9c:ec:88:40:d9:de:
                    cb:2f:e9:64:df:cc:c8:2f:73:c9:37:d1:39:1e:9e:
                    50:38:67:1b:3d:32:0f:e2:dc:29:a7:00:8b:55:e9:
                    7a:a5:19:fd:de:d5:3b:52:9a:89:4e:93:47:cf:56:
                    84:3e:36:23:e8:55:e4:09:f5:bb:b2:70:56:07:6a:
                    3f:a5:e3:8a:3c:d2:ce:fe:8b:ae:aa:e8:6a:c1:73:
                    f3:10:aa:e9:4d:24:f7:69:cb:31:84:d0:cb:70:3d:
                    35:49:e9:1f:2d:36:81:15:de:0b:75:74:43:c2:20:
                    39:a9:27:85:d5:62:15:95:bc:d7:22:70:b2:f6:09:
                    6a:47:df:b8:23:2c:d4:b7:05:ff:c0:a5:e0:7a:b2:
                    47:73:b0:44:a6:68:26:92:93:92:6e:36:6e:b3:76:
                    96:67:55:05:3e:8a:93:cd:96:bb:ea:ef:2d:64:d2:
                    3e:64:15:9b:09:e7:b0:2c:0b:02:4f:92:9a:4b:8a:
                    05:0b:dd:35:27:4f:c2:c6:be:81:b0:e3:6f:a0:64:
                    58:58:10:da:a8:79:27:57:a2:9d:a4:d3:e0:ad:d2:
                    2d:d3:9b:2f:ba:d1:fb:98:bb:a5:0b:eb:a7:55:3d:
                    c2:46:38:27:a5:d3:98:07:24:3d:c3:f3:10:82:0b:
                    ef:42:af:ad:24:66:08:ec:27:0b:4d:ed:aa:b2:6c:
                    08:c8:e1:d4:aa:88:cc:1b:b3:02:ef:c4:37:28:90:
                    c7:d6:f2:40:e9:6d:f5:34:c9:17:6d:91:1a:f7:df:
                    2e:62:43:b1:48:07:6a:b2:80:7e:b0:69:1b:1f:98:
                    b2:ad:b3:27:c5:08:23:68:fc:1d:b4:f3:1b:3a:81:
                    ec:9b:4e:f0:06:9e:9c:bc:bf:62:fe:e7:fd:5d:a2:
                    cf:3b:ad:d1:85:66:28:97:98:6d:73:12:11:9c:3d:
                    ef:42:8e:58:f6:d9:ef:d4:2e:aa:37:1c:fe:c5:85:
                    fb:c2:39:3c:c4:7d:98:35:84:f1:b0:15:f7:f4:53:
                    7a:fc:b6:77:d6:8b:05:dc:10:3b:1e:e4:45:0b:08:
                    f0:61:ce:cb:fb:5e:49:95:e6:30:dd:fe:47:39:53:
                    58:fd:5a:c6:d4:65:25:4d:c4:a5:66:10:40:22:1d:
                    e3:ed:fc:e3:50:0e:2d:7c:11:18:d4:c6:8b:45:bb:
                    b2:c5:fb:f1:bd:e1:0e:12:77:aa:d0:b4:54:c3:9d:
                    cb:65:3e:3e:72:f0:c8:60:12:aa:fe:fb:8a:4b:c2:
                    9b:4a:c5:59:2d:ca:93:e2:99:b3:1e:10:13:8c:c0:
                    a5:31:65
                Exponent: 65537 (0x10001)
        X509v3 extensions:
            X509v3 Basic Constraints: 
                CA:FALSE
            X509v3 Subject Key Identifier: 
                B9:82:B8:B0:E0:95:0E:21:A8:12:1B:41:EE:FA:DC:2E:3E:17:D2:57
            X509v3 Authority Key Identifier: 
                keyid:B8:92:DE:FD:8A:18:B3:30:C3:9F:55:F3:33:5D:B4:C8:29:8A:41:14

            Authority Information Access: 
                OCSP - URI:http://server.w1.fi:8888/

            X509v3 Extended Key Usage: 
                TLS Web Server Authentication
    Signature Algorithm: sha256WithRSAEncryption
         8a:09:20:6d:71:d0:16:13:6d:0e:19:30:5d:70:8f:8a:0c:ab:
         67:da:8f:40:51:f7:2b:d8:01:2b:9e:b4:ee:cf:95:79:e1:4f:
         05:87:27:8f:cf:84:93:28:60:3c:1c:6e:c6:3e:62:4f:d4:de:
         78:74:d2:da:f4:8d:a7:63:40:a3:21:bb:78:28:02:53:41:ac:
         40:f1:3c:77:69:c6:81:51:49:90:41:80:3a:03:f2:8c:d5:bc:
         4c:c1:70:4b:a1:c4:66:26:0b:cb:d2:43:69:89:64:c2:69:af:
         5d:3d:4b:51:d5:51:40:3d:2d:c5:a5:ef:a0:5a:42:53:2d:e1:
         11:1b
-----BEGIN CERTIFICATE-----
MIIEAzCCA2ygAwIBAgIJANjT46bL48zaMA0GCSqGSIb3DQEBCwUAMC8xCzAJBgNV
BAYTAkZJMQ4wDAYDVQQKDAV3MS5maTEQMA4GA1UEAwwHUm9vdCBDQTAgFw0xNTA1
MjQwODEzNTVaGA8yMDY1MDUxMTA4MTM1NVowNTELMAkGA1UEBhMCRkkxDjAMBgNV
BAoMBXcxLmZpMRYwFAYDVQQDDA1zZXJ2ZXI3LncxLmZpMIICIjANBgkqhkiG9w0B
AQEFAAOCAg8AMIICCgKCAgEAwPoXJ+uOR39lcQ7jRkdu/dYZ8eC9G36c7IhA2d7L
L+lk38zIL3PJN9E5Hp5QOGcbPTIP4twppwCLVel6pRn93tU7UpqJTpNHz1aEPjYj
6FXkCfW7snBWB2o/peOKPNLO/ouuquhqwXPzEKrpTST3acsxhNDLcD01SekfLTaB
Fd4LdXRDwiA5qSeF1WIVlbzXInCy9glqR9+4IyzUtwX/wKXgerJHc7BEpmgmkpOS
bjZus3aWZ1UFPoqTzZa76u8tZNI+ZBWbCeewLAsCT5KaS4oFC901J0/Cxr6BsONv
oGRYWBDaqHknV6KdpNPgrdIt05svutH7mLulC+unVT3CRjgnpdOYByQ9w/MQggvv
Qq+tJGYI7CcLTe2qsmwIyOHUqojMG7MC78Q3KJDH1vJA6W31NMkXbZEa998uYkOx
SAdqsoB+sGkbH5iyrbMnxQgjaPwdtPMbOoHsm07wBp6cvL9i/uf9XaLPO63RhWYo
l5htcxIRnD3vQo5Y9tnv1C6qNxz+xYX7wjk8xH2YNYTxsBX39FN6/LZ31osF3BA7
HuRFCwjwYc7L+15JleYw3f5HOVNY/VrG1GUlTcSlZhBAIh3j7fzjUA4tfBEY1MaL
RbuyxfvxveEOEneq0LRUw53LZT4+cvDIYBKq/vuKS8KbSsVZLcqT4pmzHhATjMCl
MWUCAwEAAaOBmjCBlzAJBgNVHRMEAjAAMB0GA1UdDgQWBBS5griw4JUOIagSG0Hu
+twuPhfSVzAfBgNVHSMEGDAWgBS4kt79ihizMMOfVfMzXbTIKYpBFDA1BggrBgEF
BQcBAQQpMCcwJQYIKwYBBQUHMAGGGWh0dHA6Ly9zZXJ2ZXIudzEuZmk6ODg4OC8w
EwYDVR0lBAwwCgYIKwYBBQUHAwEwDQYJKoZIhvcNAQELBQADgYEAigkgbXHQFhNt
DhkwXXCPigyrZ9qPQFH3K9gBK5607s+VeeFPBYcnj8+EkyhgPBxuxj5iT9TeeHTS
2vSNp2NAoyG7eCgCU0GsQPE8d2nGgVFJkEGAOgPyjNW8TMFwS6HEZiYLy9JDaYlk
wmmvXT1LUdVRQD0txaXvoFpCUy3hERs=
-----END CERTIFICATE-----
