Certificate:
    Data:
        Version: 3 (0x2)
        Serial Number:
            d8:d3:e3:a6:cb:e3:cd:25
        Signature Algorithm: sha256WithRSAEncryption
        Issuer: C=FI, O=w1.fi, CN=Root CA
        Validity
            Not Before: Oct  4 13:02:23 2019 GMT
            Not After : Oct  3 13:02:23 2020 GMT
        Subject: C=FI, O=w1.fi, CN=Test User
        Subject Public Key Info:
            Public Key Algorithm: rsaEncryption
                RSA Public-Key: (1024 bit)
                Modulus:
                    00:a6:96:2e:9b:22:8c:df:94:be:8b:89:49:f6:78:
                    76:a2:60:7e:14:95:f3:96:fe:ab:19:25:03:34:64:
                    74:01:3e:a8:9f:7c:f1:47:61:60:4c:82:92:28:7c:
                    2b:a0:0e:cb:87:bf:59:eb:d7:f3:61:22:3b:14:f3:
                    ab:31:f6:5a:95:1f:b8:7a:b8:2c:3c:a9:61:53:78:
                    9b:e8:3e:50:ec:c2:d6:44:e7:43:cd:bc:3e:4e:e7:
                    46:fe:92:9e:c3:98:0f:29:58:c8:cb:89:01:75:47:
                    e9:95:57:0f:76:c5:2f:05:5e:c7:1e:0d:f2:3c:12:
                    63:5d:b9:54:19:af:7f:40:6b
                Exponent: 65537 (0x10001)
        X509v3 extensions:
            X509v3 Basic Constraints: 
                CA:FALSE
            X509v3 Subject Key Identifier: 
                81:DE:DF:E9:5A:00:1A:CA:67:D6:06:DD:65:B2:4E:C5:9A:04:43:7D
            X509v3 Authority Key Identifier: 
                keyid:B8:92:DE:FD:8A:18:B3:30:C3:9F:55:F3:33:5D:B4:C8:29:8A:41:14

            Authority Information Access: 
                OCSP - URI:http://server.w1.fi:8888/

            X509v3 Extended Key Usage: 
                TLS Web Client Authentication
    Signature Algorithm: sha256WithRSAEncryption
         98:05:c3:45:76:9e:87:4b:6b:68:56:71:81:6c:3d:99:29:02:
         6e:00:9d:fd:2b:8a:81:c3:d4:57:f7:43:34:08:df:4a:f0:59:
         a4:3c:aa:86:a2:e2:06:3f:2c:41:b8:db:aa:e1:25:b3:8f:ab:
         85:ff:da:de:e4:3c:a6:12:3a:25:27:c5:17:f5:6c:9e:4d:54:
         36:60:df:f1:95:8f:dd:a6:97:13:ab:9f:d8:39:1f:88:29:3a:
         90:73:65:08:78:e9:64:b3:c0:34:a2:b4:a9:8e:b7:f9:f8:3f:
         fb:b6:cb:58:2d:55:2a:57:55:b9:08:c1:6b:b8:f2:25:a2:9a:
         95:a2
-----BEGIN CERTIFICATE-----
MIICeTCCAeKgAwIBAgIJANjT46bL480lMA0GCSqGSIb3DQEBCwUAMC8xCzAJBgNV
BAYTAkZJMQ4wDAYDVQQKDAV3MS5maTEQMA4GA1UEAwwHUm9vdCBDQTAeFw0xOTEw
MDQxMzAyMjNaFw0yMDEwMDMxMzAyMjNaMDExCzAJBgNVBAYTAkZJMQ4wDAYDVQQK
DAV3MS5maTESMBAGA1UEAwwJVGVzdCBVc2VyMIGfMA0GCSqGSIb3DQEBAQUAA4GN
ADCBiQKBgQCmli6bIozflL6LiUn2eHaiYH4UlfOW/qsZJQM0ZHQBPqiffPFHYWBM
gpIofCugDsuHv1nr1/NhIjsU86sx9lqVH7h6uCw8qWFTeJvoPlDswtZE50PNvD5O
50b+kp7DmA8pWMjLiQF1R+mVVw92xS8FXsceDfI8EmNduVQZr39AawIDAQABo4Ga
MIGXMAkGA1UdEwQCMAAwHQYDVR0OBBYEFIHe3+laABrKZ9YG3WWyTsWaBEN9MB8G
A1UdIwQYMBaAFLiS3v2KGLMww59V8zNdtMgpikEUMDUGCCsGAQUFBwEBBCkwJzAl
BggrBgEFBQcwAYYZaHR0cDovL3NlcnZlci53MS5maTo4ODg4LzATBgNVHSUEDDAK
BggrBgEFBQcDAjANBgkqhkiG9w0BAQsFAAOBgQCYBcNFdp6HS2toVnGBbD2ZKQJu
AJ39K4qBw9RX90M0CN9K8FmkPKqGouIGPyxBuNuq4SWzj6uF/9re5DymEjolJ8UX
9WyeTVQ2YN/xlY/dppcTq5/YOR+IKTqQc2UIeOlks8A0orSpjrf5+D/7tstYLVUq
V1W5CMFruPIlopqVog==
-----END CERTIFICATE-----
