Certificate:
    Data:
        Version: 3 (0x2)
        Serial Number: 4389 (0x1125)
    Signature Algorithm: sha1WithRSAEncryption
        Issuer: C=US, ST=CA, L=San Jose, O=Wget Testing Department, OU=Testing, CN=WgetTesting/emailAddress=bugs-wget@gnu.org
        Validity
            Not Before: May  3 19:22:57 2017 GMT
            Not After : May  3 19:22:57 2019 GMT
        Subject: CN=Client Tester, ST=CA, C=US/emailAddress=clienttester, O=Client
        Subject Public Key Info:
            Public Key Algorithm: rsaEncryption
                Public-Key: (4096 bit)
                Modulus:
                    00:bb:d4:e6:23:9b:a8:fe:d4:23:c1:da:c9:1c:47:
                    99:a7:5a:79:87:db:a1:1c:90:fd:7e:af:d6:57:d0:
                    73:ec:b7:1d:1f:d7:58:ca:7c:f5:f8:30:e4:bf:a2:
                    ad:e7:70:1b:87:82:6a:46:1e:53:11:0d:50:06:4b:
                    2d:eb:69:2d:6c:e2:1b:81:22:10:6c:52:64:f1:c4:
                    b8:62:1c:1c:10:d0:99:fe:6b:15:9f:54:2b:88:97:
                    55:90:6e:eb:10:6a:b7:ab:5f:2c:52:9f:86:c4:76:
                    a8:a7:ec:f4:49:f8:3e:c2:39:9a:a4:5f:4d:a7:a9:
                    6a:30:0d:62:eb:e5:3f:be:b4:65:0a:36:98:af:53:
                    fb:57:9d:02:b2:f8:5d:74:50:30:5d:bb:15:82:e5:
                    62:51:f7:38:48:d5:27:25:19:60:1d:de:bd:2f:41:
                    b3:c0:4d:49:0f:40:9a:e5:7f:f6:f7:79:e5:65:df:
                    de:f0:c1:3a:09:29:de:04:a0:ba:52:ec:a5:a2:ac:
                    88:2c:d1:3e:6f:b3:41:3e:25:8b:0d:22:25:d6:e7:
                    3c:24:5a:61:20:71:bb:1d:c2:4c:05:42:62:f9:d6:
                    30:7d:4d:94:9b:64:ce:ee:be:ba:87:4e:9b:de:9a:
                    0c:79:4b:a4:02:03:8e:0b:9c:70:df:a2:1e:5a:d7:
                    81:5f:90:41:2f:33:31:93:69:f0:f2:c9:43:a5:b4:
                    33:e0:52:03:f2:12:67:b2:b8:5b:0e:7b:29:74:c7:
                    85:d4:48:16:ff:1d:42:7a:d6:6e:df:f0:e0:78:2f:
                    f8:e0:47:cd:c8:61:e5:e6:d1:40:27:0a:23:fd:ad:
                    3a:72:82:23:92:0c:7e:7c:5e:7f:23:f8:8b:9e:33:
                    cd:cc:69:89:8a:a3:ac:54:ed:4f:8e:58:19:ad:5f:
                    1f:66:b0:f2:27:85:c7:72:20:a9:87:51:a5:8a:c5:
                    0f:87:39:59:58:59:11:25:8f:af:41:94:27:f3:4a:
                    4b:37:2f:a9:f6:5c:30:3f:f2:13:d1:fa:5a:b5:d1:
                    71:f1:93:b7:23:cc:ba:bc:ec:27:2d:e6:1c:4b:49:
                    35:db:4a:f6:b1:30:f1:fc:38:e5:4f:81:5f:9a:fa:
                    23:da:81:4d:44:83:e4:16:55:3a:2c:01:b8:24:f4:
                    12:78:33:a9:c8:a9:f6:6c:1b:63:02:14:c1:52:8d:
                    ed:d2:58:85:29:33:4a:00:2f:f8:df:9b:c3:ee:ad:
                    a5:17:5e:ad:38:f3:71:b7:3f:a0:7b:71:44:8a:8c:
                    fa:ec:a8:09:a3:a7:32:f0:2d:31:38:98:b9:b6:7f:
                    7e:31:f5:33:aa:3f:3a:31:65:63:ff:32:a9:32:84:
                    10:08:c1
                Exponent: 65537 (0x10001)
        X509v3 extensions:
            X509v3 Basic Constraints: critical
                CA:TRUE
            X509v3 Subject Key Identifier: 
                2F:CA:66:1A:AB:84:CE:A5:F0:B5:93:C2:D3:F9:C7:B5:F6:04:25:B0
            X509v3 Authority Key Identifier: 
                keyid:17:ED:93:43:8F:A7:A6:00:75:D4:E8:B6:82:0D:88:37:7E:C0:6D:08

            X509v3 Key Usage: 
                Digital Signature, Key Encipherment, Certificate Sign, CRL Sign
            X509v3 Extended Key Usage: 
                TLS Web Server Authentication
            X509v3 CRL Distribution Points: 

                Full Name:
                  URI:http://test.wgettest.org/Bogus.crl

                Full Name:
                  URI:http://test.wgettest.org/Bogus.crl

            X509v3 Subject Alternative Name: 
                DNS:WgetTestingServer
            Authority Information Access: 
                CA Issuers - URI:http://test.wgettest.com/Bogus.crt
                CA Issuers - URI:http://test.wgettest.com/Bogus.crt
                OCSP - URI:http://test.wgettest.com/ocsp/
                OCSP - URI:http://test.wgettest.com/ocsp/

    Signature Algorithm: sha1WithRSAEncryption
         59:13:e3:35:61:da:54:f6:80:57:47:6d:87:ed:74:54:75:f7:
         8a:31:b8:6e:ce:cc:b7:c0:e3:5f:88:05:d3:06:4b:1a:9a:58:
         d7:f8:2b:c0:ad:42:cb:4d:e0:01:79:15:68:a0:8e:54:f2:28:
         c4:88:7c:55:e2:b0:d7:e9:3a:2e:28:f3:6a:34:08:42:89:0f:
         b7:b5:ee:25:27:0e:b0:c6:86:1d:d0:fc:5e:dc:96:a5:e1:98:
         1d:91:14:5b:29:c9:17:e7:f6:4e:fb:73:69:31:83:56:ec:fc:
         c4:3b:a8:f7:29:23:2c:1e:5a:81:91:89:fc:92:c3:a8:a6:fb:
         1f:b0:50:60:36:0a:3b:28:57:05:d1:28:b9:de:91:d9:62:0c:
         56:b3:df:af:3a:30:1f:26:bd:3a:1b:cf:92:c4:a9:ec:ee:88:
         d5:fc:8b:42:d6:f1:9b:01:81:a2:3a:ae:43:69:89:9b:98:09:
         86:2f:a0:6f:5d:46:08:fd:57:71:39:26:a4:97:7f:7e:98:44:
         00:af:32:ca:99:a1:e7:f8:bc:a0:84:f6:1b:3c:f3:b8:56:2f:
         3c:a4:18:c3:7e:c0:a8:b6:43:d2:ab:e8:58:11:4d:ca:a0:da:
         2b:21:fd:e5:a7:c8:1c:b8:de:08:93:83:2b:37:b6:0c:bc:a0:
         eb:3d:af:e1:f3:9d:aa:2c:12:f7:47:71:c2:f6:55:ab:0c:b1:
         f3:ab:2e:98:b1:02:d9:ef:e1:33:f1:19:4b:3f:6b:c0:c5:fc:
         d1:cc:4e:69:bc:42:2e:b4:50:7a:82:df:47:c7:56:52:fd:16:
         a8:37:6b:1e:22:bc:05:f9:87:84:39:0b:cc:00:aa:6a:42:dc:
         f0:6d:97:78:5c:05:c9:06:d0:5f:dd:fb:c7:95:39:c3:25:a7:
         2c:84:ac:4c:84:ab:4c:5f:2a:35:12:a3:94:cb:30:8b:25:e0:
         e9:06:de:60:05:49:9c:d7:89:e9:e8:03:88:3d:3c:98:db:f7:
         5f:84:8c:20:2c:9f:ef:21:0c:23:38:40:23:38:a9:06:83:65:
         48:56:69:e0:c7:1f:e3:5a:05:7c:3f:cc:25:9e:fb:8b:ee:78:
         27:34:c0:bc:9f:e9:e4:ae:aa:88:a8:18:6d:81:ce:70:82:1e:
         b4:4e:9b:c6:a4:50:bb:62:46:0a:02:17:f5:94:10:8c:78:94:
         75:60:54:1c:cf:4f:b8:46:42:94:b9:5e:7d:72:14:dd:89:d2:
         7f:0d:42:92:41:b4:bc:ea:f9:2c:ba:26:81:a1:17:46:ce:4f:
         00:85:a9:76:68:82:6f:a2:74:01:0d:39:0e:18:4a:d9:a3:e9:
         48:44:7e:7d:8e:00:b5:02
-----BEGIN CERTIFICATE-----
MIIHNzCCBR+gAwIBAgICESUwDQYJKoZIhvcNAQEFBQAwgZkxCzAJBgNVBAYTAlVT
MQswCQYDVQQIDAJDQTERMA8GA1UEBwwIU2FuIEpvc2UxIDAeBgNVBAoMF1dnZXQg
VGVzdGluZyBEZXBhcnRtZW50MRAwDgYDVQQLDAdUZXN0aW5nMRQwEgYDVQQDDAtX
Z2V0VGVzdGluZzEgMB4GCSqGSIb3DQEJARYRYnVncy13Z2V0QGdudS5vcmcwHhcN
MTcwNTAzMTkyMjU3WhcNMTkwNTAzMTkyMjU3WjBgMRYwFAYDVQQDDA1DbGllbnQg
VGVzdGVyMQswCQYDVQQIDAJDQTELMAkGA1UEBhMCVVMxGzAZBgkqhkiG9w0BCQEW
DGNsaWVudHRlc3RlcjEPMA0GA1UECgwGQ2xpZW50MIICIjANBgkqhkiG9w0BAQEF
AAOCAg8AMIICCgKCAgEAu9TmI5uo/tQjwdrJHEeZp1p5h9uhHJD9fq/WV9Bz7Lcd
H9dYynz1+DDkv6Kt53Abh4JqRh5TEQ1QBkst62ktbOIbgSIQbFJk8cS4YhwcENCZ
/msVn1QriJdVkG7rEGq3q18sUp+GxHaop+z0Sfg+wjmapF9Np6lqMA1i6+U/vrRl
CjaYr1P7V50CsvhddFAwXbsVguViUfc4SNUnJRlgHd69L0GzwE1JD0Ca5X/293nl
Zd/e8ME6CSneBKC6UuyloqyILNE+b7NBPiWLDSIl1uc8JFphIHG7HcJMBUJi+dYw
fU2Um2TO7r66h06b3poMeUukAgOOC5xw36IeWteBX5BBLzMxk2nw8slDpbQz4FID
8hJnsrhbDnspdMeF1EgW/x1CetZu3/DgeC/44EfNyGHl5tFAJwoj/a06coIjkgx+
fF5/I/iLnjPNzGmJiqOsVO1PjlgZrV8fZrDyJ4XHciCph1GlisUPhzlZWFkRJY+v
QZQn80pLNy+p9lwwP/IT0fpatdFx8ZO3I8y6vOwnLeYcS0k120r2sTDx/DjlT4Ff
mvoj2oFNRIPkFlU6LAG4JPQSeDOpyKn2bBtjAhTBUo3t0liFKTNKAC/435vD7q2l
F16tOPNxtz+ge3FEioz67KgJo6cy8C0xOJi5tn9+MfUzqj86MWVj/zKpMoQQCMEC
AwEAAaOCAb8wggG7MA8GA1UdEwEB/wQFMAMBAf8wHQYDVR0OBBYEFC/KZhqrhM6l
8LWTwtP5x7X2BCWwMB8GA1UdIwQYMBaAFBftk0OPp6YAddTotoINiDd+wG0IMAsG
A1UdDwQEAwIBpjATBgNVHSUEDDAKBggrBgEFBQcDATBdBgNVHR8EVjBUMCigJqAk
hiJodHRwOi8vdGVzdC53Z2V0dGVzdC5vcmcvQm9ndXMuY3JsMCigJqAkhiJodHRw
Oi8vdGVzdC53Z2V0dGVzdC5vcmcvQm9ndXMuY3JsMBwGA1UdEQQVMBOCEVdnZXRU
ZXN0aW5nU2VydmVyMIHIBggrBgEFBQcBAQSBuzCBuDAuBggrBgEFBQcwAoYiaHR0
cDovL3Rlc3Qud2dldHRlc3QuY29tL0JvZ3VzLmNydDAuBggrBgEFBQcwAoYiaHR0
cDovL3Rlc3Qud2dldHRlc3QuY29tL0JvZ3VzLmNydDAqBggrBgEFBQcwAYYeaHR0
cDovL3Rlc3Qud2dldHRlc3QuY29tL29jc3AvMCoGCCsGAQUFBzABhh5odHRwOi8v
dGVzdC53Z2V0dGVzdC5jb20vb2NzcC8wDQYJKoZIhvcNAQEFBQADggIBAFkT4zVh
2lT2gFdHbYftdFR194oxuG7OzLfA41+IBdMGSxqaWNf4K8CtQstN4AF5FWigjlTy
KMSIfFXisNfpOi4o82o0CEKJD7e17iUnDrDGhh3Q/F7clqXhmB2RFFspyRfn9k77
c2kxg1bs/MQ7qPcpIyweWoGRifySw6im+x+wUGA2CjsoVwXRKLnekdliDFaz3686
MB8mvTobz5LEqezuiNX8i0LW8ZsBgaI6rkNpiZuYCYYvoG9dRgj9V3E5JqSXf36Y
RACvMsqZoef4vKCE9hs887hWLzykGMN+wKi2Q9Kr6FgRTcqg2ish/eWnyBy43giT
gys3tgy8oOs9r+HznaosEvdHccL2VasMsfOrLpixAtnv4TPxGUs/a8DF/NHMTmm8
Qi60UHqC30fHVlL9Fqg3ax4ivAX5h4Q5C8wAqmpC3PBtl3hcBckG0F/d+8eVOcMl
pyyErEyEq0xfKjUSo5TLMIsl4OkG3mAFSZzXienoA4g9PJjb91+EjCAsn+8hDCM4
QCM4qQaDZUhWaeDHH+NaBXw/zCWe+4vueCc0wLyf6eSuqoioGG2BznCCHrROm8ak
ULtiRgoCF/WUEIx4lHVgVBzPT7hGQpS5Xn1yFN2J0n8NQpJBtLzq+Sy6JoGhF0bO
TwCFqXZogm+idAENOQ4YStmj6UhEfn2OALUC
-----END CERTIFICATE-----
