Certificate:
    Data:
        Version: 3 (0x2)
        Serial Number:
            d8:d3:e3:a6:cb:e3:cd:1f
        Signature Algorithm: sha256WithRSAEncryption
        Issuer: C=FI, O=w1.fi, CN=Root CA
        Validity
            Not Before: Oct  4 13:02:23 2019 GMT
            Not After : Oct  3 13:02:23 2020 GMT
        Subject: C=FI, O=w1.fi, CN=server.w1.fi
        Subject Public Key Info:
            Public Key Algorithm: rsaEncryption
                RSA Public-Key: (1024 bit)
                Modulus:
                    00:ba:a0:77:55:22:14:85:55:65:9b:64:2c:ad:ed:
                    9b:dd:65:31:c9:da:60:50:ce:38:d6:34:dc:e8:bc:
                    1b:9e:30:e7:12:e3:53:6c:c9:ed:48:03:79:81:69:
                    98:ce:8a:b8:77:47:36:45:cf:c6:e0:f1:7b:1e:71:
                    89:54:f7:01:cc:22:ad:a0:42:b1:a8:35:9e:60:aa:
                    3a:98:51:d0:ff:1f:ee:be:8d:0a:63:fb:a2:39:17:
                    f2:64:61:f6:65:02:32:79:74:e1:9f:d1:89:65:55:
                    a9:c3:20:9e:bf:69:56:b3:f7:4f:3f:a9:54:c2:da:
                    8f:3c:af:f2:75:54:fa:7e:81
                Exponent: 65537 (0x10001)
        X509v3 extensions:
            X509v3 Basic Constraints: 
                CA:FALSE
            X509v3 Subject Key Identifier: 
                31:4F:10:5C:67:9F:BE:4E:88:D6:DC:C5:AB:9E:12:88:86:69:02:4F
            X509v3 Authority Key Identifier: 
                keyid:B8:92:DE:FD:8A:18:B3:30:C3:9F:55:F3:33:5D:B4:C8:29:8A:41:14

            Authority Information Access: 
                OCSP - URI:http://server.w1.fi:8888/

            X509v3 Subject Alternative Name: 
                DNS:server.w1.fi
            X509v3 Extended Key Usage: 
                TLS Web Server Authentication
    Signature Algorithm: sha256WithRSAEncryption
         0b:dc:4c:f7:63:b6:7b:db:79:a9:6b:d3:70:cb:c1:51:30:2d:
         76:d3:20:6a:95:3a:fe:93:4b:6a:28:86:2f:1c:1c:ea:25:92:
         b5:86:a8:08:ea:c4:0e:15:e1:b9:fd:b3:f0:d8:5a:bf:58:f7:
         57:a3:2d:fa:0e:ca:17:e4:42:bc:1d:40:f4:c6:01:76:ea:f3:
         d3:44:d6:5b:19:1a:24:ba:c2:6e:d9:7b:10:00:f2:2c:37:9a:
         fb:3e:74:2e:aa:92:b0:db:e0:92:d4:3e:66:89:37:08:71:dd:
         53:3f:83:6b:74:0e:3e:e5:1e:2f:f1:0f:b0:fb:ed:90:82:b4:
         d7:ce
-----BEGIN CERTIFICATE-----
MIIClTCCAf6gAwIBAgIJANjT46bL480fMA0GCSqGSIb3DQEBCwUAMC8xCzAJBgNV
BAYTAkZJMQ4wDAYDVQQKDAV3MS5maTEQMA4GA1UEAwwHUm9vdCBDQTAeFw0xOTEw
MDQxMzAyMjNaFw0yMDEwMDMxMzAyMjNaMDQxCzAJBgNVBAYTAkZJMQ4wDAYDVQQK
DAV3MS5maTEVMBMGA1UEAwwMc2VydmVyLncxLmZpMIGfMA0GCSqGSIb3DQEBAQUA
A4GNADCBiQKBgQC6oHdVIhSFVWWbZCyt7ZvdZTHJ2mBQzjjWNNzovBueMOcS41Ns
ye1IA3mBaZjOirh3RzZFz8bg8XsecYlU9wHMIq2gQrGoNZ5gqjqYUdD/H+6+jQpj
+6I5F/JkYfZlAjJ5dOGf0YllVanDIJ6/aVaz908/qVTC2o88r/J1VPp+gQIDAQAB
o4GzMIGwMAkGA1UdEwQCMAAwHQYDVR0OBBYEFDFPEFxnn75OiNbcxaueEoiGaQJP
MB8GA1UdIwQYMBaAFLiS3v2KGLMww59V8zNdtMgpikEUMDUGCCsGAQUFBwEBBCkw
JzAlBggrBgEFBQcwAYYZaHR0cDovL3NlcnZlci53MS5maTo4ODg4LzAXBgNVHREE
EDAOggxzZXJ2ZXIudzEuZmkwEwYDVR0lBAwwCgYIKwYBBQUHAwEwDQYJKoZIhvcN
AQELBQADgYEAC9xM92O2e9t5qWvTcMvBUTAtdtMgapU6/pNLaiiGLxwc6iWStYao
COrEDhXhuf2z8Nhav1j3V6Mt+g7KF+RCvB1A9MYBdurz00TWWxkaJLrCbtl7EADy
LDea+z50LqqSsNvgktQ+Zok3CHHdUz+Da3QOPuUeL/EPsPvtkIK0184=
-----END CERTIFICATE-----
