Certificate:
    Data:
        Version: 3 (0x2)
        Serial Number:
            d8:d3:e3:a6:cb:e3:cd:22
        Signature Algorithm: sha256WithRSAEncryption
        Issuer: C=FI, O=w1.fi, CN=Root CA
        Validity
            Not Before: Oct  4 13:02:23 2019 GMT
            Not After : Oct  3 13:02:23 2020 GMT
        Subject: C=FI, O=w1.fi, CN=server6.w1.fi
        Subject Public Key Info:
            Public Key Algorithm: rsaEncryption
                RSA Public-Key: (1024 bit)
                Modulus:
                    00:ca:30:1e:fd:13:6a:02:28:51:9a:0e:a9:1e:72:
                    7e:e7:5a:c8:cb:0c:7e:8a:99:81:8d:05:b3:09:b0:
                    a9:86:e7:ae:44:fa:e0:c7:ee:f3:18:b4:31:65:e3:
                    05:6f:66:4e:e3:e4:85:81:9b:47:7f:5f:b5:16:2b:
                    b0:59:91:9c:c5:55:d3:d3:ca:2c:81:ce:f0:27:a8:
                    54:de:0e:4f:d8:f0:11:bd:0b:10:56:38:26:df:a9:
                    3a:95:15:93:a6:16:ed:d2:1e:b4:b5:c0:a8:61:8e:
                    ae:10:04:fd:e6:26:ca:4a:0d:90:4b:b9:ac:c9:94:
                    f2:b1:6b:97:6b:60:24:ea:bd
                Exponent: 65537 (0x10001)
        X509v3 extensions:
            X509v3 Basic Constraints: 
                CA:FALSE
            X509v3 Subject Key Identifier: 
                C7:C6:EF:F5:61:D2:A0:08:81:6A:6B:44:2C:F5:72:F7:DA:DE:5B:B9
            X509v3 Authority Key Identifier: 
                keyid:B8:92:DE:FD:8A:18:B3:30:C3:9F:55:F3:33:5D:B4:C8:29:8A:41:14

            Authority Information Access: 
                OCSP - URI:http://server.w1.fi:8888/

            X509v3 Extended Key Usage: 
                TLS Web Client Authentication, TLS Web Server Authentication
    Signature Algorithm: sha256WithRSAEncryption
         1c:47:3b:a1:09:82:7d:f8:84:e2:b4:0c:26:5b:bb:f2:9a:62:
         80:ae:8e:fa:c6:4d:4b:83:73:b9:b1:d4:f8:61:5b:bb:ff:00:
         e4:86:a1:c9:9d:a2:99:e8:70:6b:41:81:4c:12:22:74:60:54:
         8c:34:e8:01:a3:d5:4d:47:11:ec:39:71:2b:dc:b4:dc:2b:5d:
         49:df:49:bf:ad:de:e6:e6:6a:76:06:74:a5:50:9c:bc:46:ce:
         a4:4f:5c:f3:0c:bc:08:c5:f7:a8:aa:bf:4a:60:d6:a1:30:82:
         6f:94:f1:68:09:0d:d5:94:64:e5:3f:ee:be:5d:ce:5d:91:99:
         60:c2
-----BEGIN CERTIFICATE-----
MIIChzCCAfCgAwIBAgIJANjT46bL480iMA0GCSqGSIb3DQEBCwUAMC8xCzAJBgNV
BAYTAkZJMQ4wDAYDVQQKDAV3MS5maTEQMA4GA1UEAwwHUm9vdCBDQTAeFw0xOTEw
MDQxMzAyMjNaFw0yMDEwMDMxMzAyMjNaMDUxCzAJBgNVBAYTAkZJMQ4wDAYDVQQK
DAV3MS5maTEWMBQGA1UEAwwNc2VydmVyNi53MS5maTCBnzANBgkqhkiG9w0BAQEF
AAOBjQAwgYkCgYEAyjAe/RNqAihRmg6pHnJ+51rIywx+ipmBjQWzCbCphueuRPrg
x+7zGLQxZeMFb2ZO4+SFgZtHf1+1FiuwWZGcxVXT08osgc7wJ6hU3g5P2PARvQsQ
Vjgm36k6lRWTphbt0h60tcCoYY6uEAT95ibKSg2QS7msyZTysWuXa2Ak6r0CAwEA
AaOBpDCBoTAJBgNVHRMEAjAAMB0GA1UdDgQWBBTHxu/1YdKgCIFqa0Qs9XL32t5b
uTAfBgNVHSMEGDAWgBS4kt79ihizMMOfVfMzXbTIKYpBFDA1BggrBgEFBQcBAQQp
MCcwJQYIKwYBBQUHMAGGGWh0dHA6Ly9zZXJ2ZXIudzEuZmk6ODg4OC8wHQYDVR0l
BBYwFAYIKwYBBQUHAwIGCCsGAQUFBwMBMA0GCSqGSIb3DQEBCwUAA4GBABxHO6EJ
gn34hOK0DCZbu/KaYoCujvrGTUuDc7mx1PhhW7v/AOSGocmdopnocGtBgUwSInRg
VIw06AGj1U1HEew5cSvctNwrXUnfSb+t3ubmanYGdKVQnLxGzqRPXPMMvAjF96iq
v0pg1qEwgm+U8WgJDdWUZOU/7r5dzl2RmWDC
-----END CERTIFICATE-----
