Certificate:
    Data:
        Version: 3 (0x2)
        Serial Number: 7 (0x7)
        Signature Algorithm: sha256WithRSAEncryption
        Issuer: C=CH, O=Linux strongSwan, OU=Research, CN=Research CA
        Validity
            Not Before: Jul  3 15:18:39 2010 GMT
            Not After : Jul  2 15:18:39 2015 GMT
        Subject: C=CH, O=Linux strongSwan, OU=Sales, CN=Sales CA
        Subject Public Key Info:
            Public Key Algorithm: rsaEncryption
            RSA Public Key: (2048 bit)
                Modulus (2048 bit):
                    00:c2:4e:4d:26:99:8c:37:b9:51:1f:a1:25:ba:1d:
                    70:4e:34:58:1c:56:9b:ea:f4:16:20:fe:14:b7:36:
                    73:48:47:fd:07:16:9b:55:df:aa:77:3d:a9:a3:cf:
                    1a:8c:4e:d8:17:f0:5e:01:44:1d:f3:9d:43:31:c6:
                    ba:d8:61:b2:f7:4c:3e:49:96:3f:56:77:b8:3a:f0:
                    b1:ca:ab:98:bc:aa:e0:92:3c:ed:ec:52:7a:7d:60:
                    82:60:95:12:26:f9:e5:3e:1f:37:1a:d3:20:62:5a:
                    a1:ee:89:9f:db:fd:67:01:b6:07:e5:2b:de:71:40:
                    ff:07:5c:91:27:6a:27:17:3a:5c:bf:43:29:c4:64:
                    dd:3c:59:b6:ff:52:b8:37:ed:13:d1:bb:f3:b3:ba:
                    3c:94:b2:7f:25:18:86:57:73:d4:46:5e:e4:f4:ec:
                    52:80:1b:04:9d:03:0d:72:71:df:9e:b6:90:3b:5f:
                    41:dc:1e:cd:ab:74:2c:0c:8e:b1:56:9b:62:af:f4:
                    1b:f7:c1:67:02:cb:7a:be:2a:18:5d:be:dc:2b:2f:
                    3f:b8:cd:5e:78:51:61:e4:af:db:ee:22:da:60:23:
                    81:b0:51:23:50:37:8a:aa:14:dc:da:b5:bc:f0:2a:
                    ce:b7:a4:38:8f:d1:57:d1:eb:7b:d2:f5:af:c5:f5:
                    74:81
                Exponent: 65537 (0x10001)
        X509v3 extensions:
            X509v3 Basic Constraints: critical
                CA:TRUE
            X509v3 Key Usage: 
                Certificate Sign, CRL Sign
            X509v3 Subject Key Identifier: 
                5F:9B:13:46:F9:20:72:C8:00:D5:88:B5:A7:4C:2E:97:EA:0B:93:28
            X509v3 Authority Key Identifier: 
                keyid:E7:75:F0:A0:F2:AD:20:CD:CD:60:23:CC:C7:C8:0F:29:F3:DD:54:20
                DirName:/C=CH/O=Linux strongSwan/CN=strongSwan Root CA
                serial:20

            X509v3 CRL Distribution Points: 
                URI:http://crl.strongswan.org/research.crl

    Signature Algorithm: sha256WithRSAEncryption
        33:e2:05:f4:db:4e:41:f0:45:da:6d:e2:20:18:ff:0c:74:00:
        a2:b0:9c:5e:b7:eb:ed:44:fa:6f:1d:1e:7d:47:85:35:3c:15:
        99:22:44:2b:11:49:17:71:aa:9c:e9:ac:c8:1a:ea:fe:e4:b1:
        5d:bd:08:82:69:4d:c8:9a:0f:8f:12:db:35:8d:b2:24:36:bd:
        f3:41:e1:47:a7:1b:8c:0a:54:6f:3b:e3:60:90:6a:40:b3:66:
        4f:fb:32:b1:ee:b6:4f:95:0d:c3:77:a0:67:2e:e2:01:44:08:
        fc:eb:66:26:0f:4d:5b:fb:e0:f0:85:45:f7:77:ed:26:25:5e:
        63:74:28:5d:08:bf:38:2e:d8:33:70:24:d3:03:01:ae:ac:1e:
        cf:bf:f0:7f:fb:05:bc:c7:c5:46:64:4f:bc:eb:4e:ec:b8:33:
        91:46:20:a9:65:40:1c:40:2e:9f:fc:37:f2:cd:e2:fc:f4:65:
        b2:e0:6c:d5:3b:12:8d:7a:12:29:1b:10:04:94:b3:74:9c:9a:
        76:be:74:50:52:7d:ec:5f:d0:6f:68:aa:f1:ef:c6:35:8f:89:
        94:70:e9:9a:d2:e5:36:64:00:4d:43:99:da:8b:5b:04:cd:ab:
        f1:68:69:e0:d6:b2:59:60:01:da:8c:03:67:cb:ee:2f:6d:b0:
        51:d9:55:89
-----BEGIN CERTIFICATE-----
MIIEADCCAuigAwIBAgIBBzANBgkqhkiG9w0BAQsFADBRMQswCQYDVQQGEwJDSDEZ
MBcGA1UEChMQTGludXggc3Ryb25nU3dhbjERMA8GA1UECxMIUmVzZWFyY2gxFDAS
BgNVBAMTC1Jlc2VhcmNoIENBMB4XDTEwMDcwMzE1MTgzOVoXDTE1MDcwMjE1MTgz
OVowSzELMAkGA1UEBhMCQ0gxGTAXBgNVBAoTEExpbnV4IHN0cm9uZ1N3YW4xDjAM
BgNVBAsTBVNhbGVzMREwDwYDVQQDEwhTYWxlcyBDQTCCASIwDQYJKoZIhvcNAQEB
BQADggEPADCCAQoCggEBAMJOTSaZjDe5UR+hJbodcE40WBxWm+r0FiD+FLc2c0hH
/QcWm1Xfqnc9qaPPGoxO2BfwXgFEHfOdQzHGuthhsvdMPkmWP1Z3uDrwscqrmLyq
4JI87exSen1ggmCVEib55T4fNxrTIGJaoe6Jn9v9ZwG2B+Ur3nFA/wdckSdqJxc6
XL9DKcRk3TxZtv9SuDftE9G787O6PJSyfyUYhldz1EZe5PTsUoAbBJ0DDXJx3562
kDtfQdwezat0LAyOsVabYq/0G/fBZwLLer4qGF2+3CsvP7jNXnhRYeSv2+4i2mAj
gbBRI1A3iqoU3Nq1vPAqzrekOI/RV9Hre9L1r8X1dIECAwEAAaOB6DCB5TAPBgNV
HRMBAf8EBTADAQH/MAsGA1UdDwQEAwIBBjAdBgNVHQ4EFgQUX5sTRvkgcsgA1Yi1
p0wul+oLkygwbQYDVR0jBGYwZIAU53XwoPKtIM3NYCPMx8gPKfPdVCChSaRHMEUx
CzAJBgNVBAYTAkNIMRkwFwYDVQQKExBMaW51eCBzdHJvbmdTd2FuMRswGQYDVQQD
ExJzdHJvbmdTd2FuIFJvb3QgQ0GCASAwNwYDVR0fBDAwLjAsoCqgKIYmaHR0cDov
L2NybC5zdHJvbmdzd2FuLm9yZy9yZXNlYXJjaC5jcmwwDQYJKoZIhvcNAQELBQAD
ggEBADPiBfTbTkHwRdpt4iAY/wx0AKKwnF636+1E+m8dHn1HhTU8FZkiRCsRSRdx
qpzprMga6v7ksV29CIJpTciaD48S2zWNsiQ2vfNB4UenG4wKVG8742CQakCzZk/7
MrHutk+VDcN3oGcu4gFECPzrZiYPTVv74PCFRfd37SYlXmN0KF0Ivzgu2DNwJNMD
Aa6sHs+/8H/7BbzHxUZkT7zrTuy4M5FGIKllQBxALp/8N/LN4vz0ZbLgbNU7Eo16
EikbEASUs3Scmna+dFBSfexf0G9oqvHvxjWPiZRw6ZrS5TZkAE1DmdqLWwTNq/Fo
aeDWsllgAdqMA2fL7i9tsFHZVYk=
-----END CERTIFICATE-----
