Certificate:
    Data:
        Version: 3 (0x2)
        Serial Number: 9232555434986539704 (0x8020a0407f798ab8)
    Signature Algorithm: sha256WithRSAEncryption
        Issuer: C=FI, O=w1.fi, CN=Server Intermediate CA
        Validity
            Not Before: Dec 23 19:37:36 2015 GMT
            Not After : Dec 20 19:37:36 2025 GMT
        Subject: C=FI, O=w1.fi, CN=server.w1.fi
        Subject Public Key Info:
            Public Key Algorithm: rsaEncryption
                Public-Key: (2048 bit)
                Modulus:
                    00:e4:88:a5:93:02:5b:bc:54:68:46:fa:73:7d:33:
                    30:47:45:5c:49:5f:3c:51:5f:9b:fe:c5:14:10:26:
                    3d:0f:e3:c2:b2:17:84:d3:3e:12:a8:b2:7b:02:1a:
                    8a:8b:e9:f4:41:1e:fc:f3:49:2d:c6:d4:88:27:81:
                    d0:86:f3:b9:c0:0a:2a:28:45:00:32:c3:18:22:f6:
                    99:37:f1:74:8d:ac:54:47:73:e5:b6:d3:e7:f8:80:
                    99:75:f5:19:19:eb:19:70:df:92:53:b1:61:38:ff:
                    7f:cf:8b:bd:e1:7f:50:5b:d0:95:30:a3:37:6b:8a:
                    72:06:a7:e8:39:e2:a4:78:43:98:91:cd:30:88:34:
                    5b:aa:9e:a2:9f:26:d5:e1:5b:86:4d:01:a4:c2:65:
                    cd:27:94:be:e2:f5:73:5d:c4:60:98:f1:75:11:94:
                    09:0d:9d:04:7f:ef:1a:9d:5f:f0:4a:3f:88:d7:76:
                    2e:9b:d6:2a:c6:94:09:37:0a:37:24:92:91:9d:18:
                    0f:ea:4e:d4:e4:9d:45:38:5a:ba:d8:df:b6:15:6f:
                    ac:ff:6c:41:ac:d7:c0:0a:55:ec:81:ca:9a:59:40:
                    55:8b:a4:77:13:df:fa:c3:b5:ee:ef:87:41:8d:94:
                    d0:c0:96:41:b4:3a:04:b6:6b:6a:56:93:f4:67:7e:
                    27:e1
                Exponent: 65537 (0x10001)
        X509v3 extensions:
            X509v3 Basic Constraints: critical
                CA:FALSE
            X509v3 Subject Key Identifier: 
                4B:81:85:B4:88:41:0D:D4:15:D3:48:0E:F4:A9:99:14:2D:B1:DB:93
            X509v3 Authority Key Identifier: 
                keyid:84:09:8B:55:1F:7D:2F:0F:28:D7:9C:EC:54:4E:9F:11:97:55:D9:B9

            X509v3 Subject Alternative Name: critical
                DNS:server.w1.fi
            X509v3 Extended Key Usage: critical
                TLS Web Server Authentication
            X509v3 Key Usage: 
                Digital Signature, Key Encipherment
    Signature Algorithm: sha256WithRSAEncryption
         49:2a:14:22:16:2c:12:f5:4e:06:f3:c2:1e:ac:54:07:5d:86:
         16:3e:6c:a0:73:e1:a6:d7:c3:49:1f:80:0d:b6:54:22:77:ce:
         39:dd:f6:f6:9f:62:ff:d5:27:7f:c3:92:73:b9:a7:ce:87:5a:
         e3:bc:52:b3:0a:99:eb:91:56:b6:78:01:c3:0e:4b:ca:8a:04:
         ee:5c:56:05:ef:7a:cb:21:f9:eb:8a:38:12:50:c7:6e:a8:1f:
         0e:81:81:a6:2d:ea:35:94:24:db:76:77:df:ea:41:4c:af:7e:
         29:9d:d5:e6:e3:12:78:19:92:ed:35:b9:99:19:a9:d6:cb:f8:
         a7:21:fb:8e:a7:39:dc:e1:ab:3d:ba:12:87:ba:1c:08:e6:8a:
         21:96:44:44:8a:61:0f:70:00:d0:cb:63:93:a4:fa:cc:75:a3:
         fd:e8:af:33:24:80:4a:d9:b9:2a:a1:20:0b:62:0b:17:6c:9a:
         7c:8b:fd:9e:ff:be:b2:51:5e:e9:3a:cc:28:22:63:44:69:7f:
         6d:1f:08:14:a4:32:d0:1f:f9:c3:8d:28:1a:76:12:00:3c:b3:
         38:13:ca:67:17:79:c6:de:5d:b7:9d:f8:e3:64:f7:b3:a0:5c:
         e5:6e:fc:10:f3:53:d6:70:38:c2:6f:87:ab:07:1c:64:ff:30:
         d8:3a:1e:75
-----BEGIN CERTIFICATE-----
MIIDiDCCAnCgAwIBAgIJAIAgoEB/eYq4MA0GCSqGSIb3DQEBCwUAMD4xCzAJBgNV
BAYTAkZJMQ4wDAYDVQQKDAV3MS5maTEfMB0GA1UEAwwWU2VydmVyIEludGVybWVk
aWF0ZSBDQTAeFw0xNTEyMjMxOTM3MzZaFw0yNTEyMjAxOTM3MzZaMDQxCzAJBgNV
BAYTAkZJMQ4wDAYDVQQKDAV3MS5maTEVMBMGA1UEAwwMc2VydmVyLncxLmZpMIIB
IjANBgkqhkiG9w0BAQEFAAOCAQ8AMIIBCgKCAQEA5IilkwJbvFRoRvpzfTMwR0Vc
SV88UV+b/sUUECY9D+PCsheE0z4SqLJ7AhqKi+n0QR7880ktxtSIJ4HQhvO5wAoq
KEUAMsMYIvaZN/F0jaxUR3PlttPn+ICZdfUZGesZcN+SU7FhOP9/z4u94X9QW9CV
MKM3a4pyBqfoOeKkeEOYkc0wiDRbqp6inybV4VuGTQGkwmXNJ5S+4vVzXcRgmPF1
EZQJDZ0Ef+8anV/wSj+I13Yum9YqxpQJNwo3JJKRnRgP6k7U5J1FOFq62N+2FW+s
/2xBrNfAClXsgcqaWUBVi6R3E9/6w7Xu74dBjZTQwJZBtDoEtmtqVpP0Z34n4QID
AQABo4GSMIGPMAwGA1UdEwEB/wQCMAAwHQYDVR0OBBYEFEuBhbSIQQ3UFdNIDvSp
mRQtsduTMB8GA1UdIwQYMBaAFIQJi1UffS8PKNec7FROnxGXVdm5MBoGA1UdEQEB
/wQQMA6CDHNlcnZlci53MS5maTAWBgNVHSUBAf8EDDAKBggrBgEFBQcDATALBgNV
HQ8EBAMCBaAwDQYJKoZIhvcNAQELBQADggEBAEkqFCIWLBL1Tgbzwh6sVAddhhY+
bKBz4abXw0kfgA22VCJ3zjnd9vafYv/VJ3/DknO5p86HWuO8UrMKmeuRVrZ4AcMO
S8qKBO5cVgXvessh+euKOBJQx26oHw6BgaYt6jWUJNt2d9/qQUyvfimd1ebjEngZ
ku01uZkZqdbL+Kch+46nOdzhqz26Eoe6HAjmiiGWRESKYQ9wANDLY5Ok+sx1o/3o
rzMkgErZuSqhIAtiCxdsmnyL/Z7/vrJRXuk6zCgiY0Rpf20fCBSkMtAf+cONKBp2
EgA8szgTymcXecbeXbed+ONk97OgXOVu/BDzU9ZwOMJvh6sHHGT/MNg6HnU=
-----END CERTIFICATE-----
Certificate:
    Data:
        Version: 3 (0x2)
        Serial Number: 15624081837803162867 (0xd8d3e3a6cbe3ccf3)
    Signature Algorithm: sha256WithRSAEncryption
        Issuer: C=FI, O=w1.fi, CN=Root CA
        Validity
            Not Before: Dec 23 19:37:36 2015 GMT
            Not After : Dec 22 19:37:36 2025 GMT
        Subject: C=FI, O=w1.fi, CN=Server Intermediate CA
        Subject Public Key Info:
            Public Key Algorithm: rsaEncryption
                Public-Key: (2048 bit)
                Modulus:
                    00:de:58:ac:e3:d8:7e:40:f6:84:2a:49:24:49:5a:
                    f7:c8:23:08:b9:6c:d9:07:01:69:8f:77:28:71:42:
                    a2:eb:ae:86:10:c6:31:61:9a:14:88:44:0a:68:bf:
                    6e:a2:46:41:e9:6f:a2:89:fb:0b:f3:e1:b8:30:bf:
                    e5:80:5e:f9:61:8d:6e:ac:e2:f7:28:e7:9e:44:28:
                    b8:e4:6e:87:76:a9:d7:ac:ed:11:3f:de:c3:dd:41:
                    c3:45:82:09:c3:a7:4c:e6:df:2b:88:1e:44:ce:e2:
                    a7:29:53:f6:13:96:ad:6c:2e:93:00:28:42:77:bc:
                    73:6e:86:e7:5b:e8:eb:e9:37:1d:63:e7:ea:05:5a:
                    71:28:f0:81:0b:4c:3f:dd:73:f8:db:13:a8:f0:5f:
                    6f:6f:e5:1b:c7:94:7f:57:c5:dc:66:26:0c:5a:71:
                    7a:e3:d2:3e:7a:a6:59:46:03:61:78:89:84:3d:ef:
                    22:9c:f8:c2:22:75:c4:0c:ef:fb:e4:fa:6f:b8:11:
                    db:aa:92:9b:6c:23:4e:6e:e5:55:d2:41:47:18:95:
                    c6:7d:17:be:6d:ab:39:a1:38:61:fd:f9:22:95:69:
                    f3:9e:28:fd:8a:c8:58:72:3c:91:c2:22:d9:fb:b2:
                    54:0f:9a:17:27:88:df:60:f5:de:fc:95:9f:25:c6:
                    64:81
                Exponent: 65537 (0x10001)
        X509v3 extensions:
            X509v3 Subject Key Identifier: 
                84:09:8B:55:1F:7D:2F:0F:28:D7:9C:EC:54:4E:9F:11:97:55:D9:B9
            X509v3 Authority Key Identifier: 
                keyid:B8:92:DE:FD:8A:18:B3:30:C3:9F:55:F3:33:5D:B4:C8:29:8A:41:14

            X509v3 Basic Constraints: critical
                CA:TRUE, pathlen:0
            X509v3 Key Usage: critical
                Certificate Sign, CRL Sign
    Signature Algorithm: sha256WithRSAEncryption
         bd:22:63:3d:a7:e5:ce:c9:f5:66:1f:77:5f:d5:24:e3:68:dc:
         a4:07:80:3e:5e:b1:2c:96:88:39:ad:00:4c:aa:9d:0b:ed:f3:
         6d:df:9d:2f:97:d2:77:8b:ba:d0:9c:0f:a6:5e:60:b8:0f:e1:
         96:b1:61:25:48:69:81:64:a8:5c:82:58:0b:f3:d0:a9:4e:8b:
         90:fc:2f:67:57:da:72:dc:3c:eb:c2:20:19:05:8d:42:0d:14:
         cf:00:db:59:00:ea:f0:76:3e:ca:85:b1:05:e5:b8:5f:0b:46:
         c7:3c:a1:d9:5c:4d:b9:24:e7:d6:2b:3d:0d:eb:c3:88:d8:3a:
         f6:60
-----BEGIN CERTIFICATE-----
MIIC1TCCAj6gAwIBAgIJANjT46bL48zzMA0GCSqGSIb3DQEBCwUAMC8xCzAJBgNV
BAYTAkZJMQ4wDAYDVQQKDAV3MS5maTEQMA4GA1UEAwwHUm9vdCBDQTAeFw0xNTEy
MjMxOTM3MzZaFw0yNTEyMjIxOTM3MzZaMD4xCzAJBgNVBAYTAkZJMQ4wDAYDVQQK
DAV3MS5maTEfMB0GA1UEAwwWU2VydmVyIEludGVybWVkaWF0ZSBDQTCCASIwDQYJ
KoZIhvcNAQEBBQADggEPADCCAQoCggEBAN5YrOPYfkD2hCpJJEla98gjCLls2QcB
aY93KHFCouuuhhDGMWGaFIhECmi/bqJGQelvoon7C/PhuDC/5YBe+WGNbqzi9yjn
nkQouORuh3ap16ztET/ew91Bw0WCCcOnTObfK4geRM7ipylT9hOWrWwukwAoQne8
c26G51vo6+k3HWPn6gVacSjwgQtMP91z+NsTqPBfb2/lG8eUf1fF3GYmDFpxeuPS
PnqmWUYDYXiJhD3vIpz4wiJ1xAzv++T6b7gR26qSm2wjTm7lVdJBRxiVxn0Xvm2r
OaE4Yf35IpVp854o/YrIWHI8kcIi2fuyVA+aFyeI32D13vyVnyXGZIECAwEAAaNm
MGQwHQYDVR0OBBYEFIQJi1UffS8PKNec7FROnxGXVdm5MB8GA1UdIwQYMBaAFLiS
3v2KGLMww59V8zNdtMgpikEUMBIGA1UdEwEB/wQIMAYBAf8CAQAwDgYDVR0PAQH/
BAQDAgEGMA0GCSqGSIb3DQEBCwUAA4GBAL0iYz2n5c7J9WYfd1/VJONo3KQHgD5e
sSyWiDmtAEyqnQvt823fnS+X0neLutCcD6ZeYLgP4ZaxYSVIaYFkqFyCWAvz0KlO
i5D8L2dX2nLcPOvCIBkFjUINFM8A21kA6vB2PsqFsQXluF8LRsc8odlcTbkk59Yr
PQ3rw4jYOvZg
-----END CERTIFICATE-----
