Certificate:
    Data:
        Version: 3 (0x2)
        Serial Number: 6 (0x6)
        Signature Algorithm: sha256WithRSAEncryption
        Issuer: C=CH, O=Linux strongSwan, OU=Sales, CN=Sales CA
        Validity
            Not Before: Jul  3 15:28:29 2010 GMT
            Not After : Jul  2 15:28:29 2015 GMT
        Subject: C=CH, O=Linux strongSwan, OU=Research, CN=Research CA
        Subject Public Key Info:
            Public Key Algorithm: rsaEncryption
            RSA Public Key: (2048 bit)
                Modulus (2048 bit):
                    00:b6:39:b2:3a:a6:e0:07:5b:58:a7:3f:4f:b2:5a:
                    85:6a:72:f7:1b:5d:3d:b1:e7:80:13:7a:95:b9:e9:
                    61:a1:df:af:19:c6:b2:f9:83:14:21:59:1c:27:7b:
                    7a:04:6a:43:f0:2e:24:71:dc:12:fd:c3:51:d7:c9:
                    59:60:32:a5:59:d4:bd:d9:5c:a7:9f:21:06:3a:71:
                    7d:33:d7:3f:d2:03:07:1c:d0:69:0c:94:ce:c1:31:
                    20:65:8e:55:46:36:7b:bc:49:e4:12:81:9d:75:64:
                    a2:4d:e1:b5:8e:07:af:51:9d:a8:d8:7e:dc:b1:26:
                    6d:e8:09:06:78:13:45:24:71:e0:f2:89:e7:81:4e:
                    fd:be:fc:2d:4c:c1:fa:b3:31:af:3c:70:fe:59:c8:
                    f2:31:26:02:d2:a5:ba:04:3b:73:d6:ae:31:e1:42:
                    cf:e3:66:95:27:e7:4a:85:a1:1c:de:6a:9b:ed:22:
                    34:ac:b4:0b:ed:b9:22:e1:3c:36:af:a2:de:3b:41:
                    88:8f:01:c0:1a:87:63:7b:b6:22:e7:e5:52:1f:4d:
                    73:d7:7f:47:ab:c6:b1:13:cc:1e:cd:f4:5f:51:da:
                    fe:6d:14:83:8f:78:fb:0c:2a:c1:f1:01:65:18:f3:
                    c4:c9:8c:17:fd:52:1b:82:35:13:74:c3:38:9d:ec:
                    ae:39
                Exponent: 65537 (0x10001)
        X509v3 extensions:
            X509v3 Basic Constraints: critical
                CA:TRUE
            X509v3 Key Usage: 
                Certificate Sign, CRL Sign
            X509v3 Subject Key Identifier: 
                E7:75:F0:A0:F2:AD:20:CD:CD:60:23:CC:C7:C8:0F:29:F3:DD:54:20
            X509v3 Authority Key Identifier: 
                keyid:5F:9B:13:46:F9:20:72:C8:00:D5:88:B5:A7:4C:2E:97:EA:0B:93:28
                DirName:/C=CH/O=Linux strongSwan/CN=strongSwan Root CA
                serial:21

            X509v3 CRL Distribution Points: 
                URI:http://crl.strongswan.org/sales.crl

    Signature Algorithm: sha256WithRSAEncryption
        b4:53:55:44:bc:6e:96:f7:36:bc:16:57:f6:88:13:a2:bd:32:
        fb:57:d6:43:f3:31:46:d9:83:29:30:3a:6e:20:d6:37:c3:9a:
        a6:cf:c3:6f:17:e9:86:44:49:0d:81:6c:6d:50:46:1d:d2:52:
        94:a8:4f:9b:e9:94:f7:03:e0:e0:af:dc:e4:4a:00:2c:c6:87:
        1e:31:7a:67:7b:4e:96:0f:f1:d9:e9:b5:f9:3a:e9:c7:c5:08:
        ff:88:b7:4b:78:84:fe:39:06:a9:60:55:97:dd:e5:90:0e:fe:
        88:11:43:ed:ac:ef:d3:9b:73:95:cf:ab:f4:a1:1a:f0:a8:9c:
        65:4e:3c:3b:aa:91:6a:cf:fc:84:88:31:d0:57:14:7a:a4:5b:
        25:b6:e1:ef:ca:ce:ae:e9:3c:c1:b5:f0:47:2d:ec:d0:38:81:
        15:d2:89:6c:74:53:7d:e5:85:63:5a:b0:fb:d2:2a:d2:a0:0b:
        a7:5c:99:13:6a:8f:24:c7:42:81:72:d3:61:4b:80:a3:f5:a7:
        6d:78:4e:12:e4:4a:bf:5d:80:74:fa:7b:af:51:ec:44:bd:56:
        29:f7:0d:48:0f:b8:97:65:5d:c6:b1:fc:15:a6:ea:02:ee:82:
        a1:dc:5d:51:85:ca:e5:4f:90:34:a0:3d:db:3a:9b:42:90:70:
        45:67:b9:a5
-----BEGIN CERTIFICATE-----
MIID/TCCAuWgAwIBAgIBBjANBgkqhkiG9w0BAQsFADBLMQswCQYDVQQGEwJDSDEZ
MBcGA1UEChMQTGludXggc3Ryb25nU3dhbjEOMAwGA1UECxMFU2FsZXMxETAPBgNV
BAMTCFNhbGVzIENBMB4XDTEwMDcwMzE1MjgyOVoXDTE1MDcwMjE1MjgyOVowUTEL
MAkGA1UEBhMCQ0gxGTAXBgNVBAoTEExpbnV4IHN0cm9uZ1N3YW4xETAPBgNVBAsT
CFJlc2VhcmNoMRQwEgYDVQQDEwtSZXNlYXJjaCBDQTCCASIwDQYJKoZIhvcNAQEB
BQADggEPADCCAQoCggEBALY5sjqm4AdbWKc/T7JahWpy9xtdPbHngBN6lbnpYaHf
rxnGsvmDFCFZHCd7egRqQ/AuJHHcEv3DUdfJWWAypVnUvdlcp58hBjpxfTPXP9ID
BxzQaQyUzsExIGWOVUY2e7xJ5BKBnXVkok3htY4Hr1GdqNh+3LEmbegJBngTRSRx
4PKJ54FO/b78LUzB+rMxrzxw/lnI8jEmAtKlugQ7c9auMeFCz+NmlSfnSoWhHN5q
m+0iNKy0C+25IuE8Nq+i3jtBiI8BwBqHY3u2IuflUh9Nc9d/R6vGsRPMHs30X1Ha
/m0Ug494+wwqwfEBZRjzxMmMF/1SG4I1E3TDOJ3srjkCAwEAAaOB5TCB4jAPBgNV
HRMBAf8EBTADAQH/MAsGA1UdDwQEAwIBBjAdBgNVHQ4EFgQU53XwoPKtIM3NYCPM
x8gPKfPdVCAwbQYDVR0jBGYwZIAUX5sTRvkgcsgA1Yi1p0wul+oLkyihSaRHMEUx
CzAJBgNVBAYTAkNIMRkwFwYDVQQKExBMaW51eCBzdHJvbmdTd2FuMRswGQYDVQQD
ExJzdHJvbmdTd2FuIFJvb3QgQ0GCASEwNAYDVR0fBC0wKzApoCegJYYjaHR0cDov
L2NybC5zdHJvbmdzd2FuLm9yZy9zYWxlcy5jcmwwDQYJKoZIhvcNAQELBQADggEB
ALRTVUS8bpb3NrwWV/aIE6K9MvtX1kPzMUbZgykwOm4g1jfDmqbPw28X6YZESQ2B
bG1QRh3SUpSoT5vplPcD4OCv3ORKACzGhx4xemd7TpYP8dnptfk66cfFCP+It0t4
hP45BqlgVZfd5ZAO/ogRQ+2s79Obc5XPq/ShGvConGVOPDuqkWrP/ISIMdBXFHqk
WyW24e/Kzq7pPMG18Ect7NA4gRXSiWx0U33lhWNasPvSKtKgC6dcmRNqjyTHQoFy
02FLgKP1p214ThLkSr9dgHT6e69R7ES9Vin3DUgPuJdlXcax/BWm6gLugqHcXVGF
yuVPkDSgPds6m0KQcEVnuaU=
-----END CERTIFICATE-----
