Certificate:
    Data:
        Version: 3 (0x2)
        Serial Number: 32 (0x20)
        Signature Algorithm: sha256WithRSAEncryption
        Issuer: C=CH, O=Linux strongSwan, CN=strongSwan Root CA
        Validity
            Not Before: Apr  6 09:53:50 2010 GMT
            Not After : Apr  4 09:53:50 2019 GMT
        Subject: C=CH, O=Linux strongSwan, OU=Research, CN=Research CA
        Subject Public Key Info:
            Public Key Algorithm: rsaEncryption
            RSA Public Key: (2048 bit)
                Modulus (2048 bit):
                    00:b6:39:b2:3a:a6:e0:07:5b:58:a7:3f:4f:b2:5a:
                    85:6a:72:f7:1b:5d:3d:b1:e7:80:13:7a:95:b9:e9:
                    61:a1:df:af:19:c6:b2:f9:83:14:21:59:1c:27:7b:
                    7a:04:6a:43:f0:2e:24:71:dc:12:fd:c3:51:d7:c9:
                    59:60:32:a5:59:d4:bd:d9:5c:a7:9f:21:06:3a:71:
                    7d:33:d7:3f:d2:03:07:1c:d0:69:0c:94:ce:c1:31:
                    20:65:8e:55:46:36:7b:bc:49:e4:12:81:9d:75:64:
                    a2:4d:e1:b5:8e:07:af:51:9d:a8:d8:7e:dc:b1:26:
                    6d:e8:09:06:78:13:45:24:71:e0:f2:89:e7:81:4e:
                    fd:be:fc:2d:4c:c1:fa:b3:31:af:3c:70:fe:59:c8:
                    f2:31:26:02:d2:a5:ba:04:3b:73:d6:ae:31:e1:42:
                    cf:e3:66:95:27:e7:4a:85:a1:1c:de:6a:9b:ed:22:
                    34:ac:b4:0b:ed:b9:22:e1:3c:36:af:a2:de:3b:41:
                    88:8f:01:c0:1a:87:63:7b:b6:22:e7:e5:52:1f:4d:
                    73:d7:7f:47:ab:c6:b1:13:cc:1e:cd:f4:5f:51:da:
                    fe:6d:14:83:8f:78:fb:0c:2a:c1:f1:01:65:18:f3:
                    c4:c9:8c:17:fd:52:1b:82:35:13:74:c3:38:9d:ec:
                    ae:39
                Exponent: 65537 (0x10001)
        X509v3 extensions:
            X509v3 Basic Constraints: critical
                CA:TRUE
            X509v3 Key Usage: 
                Certificate Sign, CRL Sign
            X509v3 Subject Key Identifier: 
                E7:75:F0:A0:F2:AD:20:CD:CD:60:23:CC:C7:C8:0F:29:F3:DD:54:20
            X509v3 Authority Key Identifier: 
                keyid:5D:A7:DD:70:06:51:32:7E:E7:B6:6D:B3:B5:E5:E0:60:EA:2E:4D:EF
                DirName:/C=CH/O=Linux strongSwan/CN=strongSwan Root CA
                serial:00

    Signature Algorithm: sha256WithRSAEncryption
        8d:6d:a1:6d:1b:2d:cc:81:5c:0a:32:15:e2:ca:1b:2e:12:89:
        b7:0d:05:9b:3f:ae:80:a1:73:05:1a:bf:47:e8:c8:b7:42:60:
        c6:05:28:47:87:38:bb:c8:b1:32:23:89:fa:58:e0:c3:f2:dd:
        20:60:43:95:e9:72:ce:6f:38:5c:16:f7:b8:cc:e9:87:c1:ca:
        a8:f1:e3:ee:ea:4c:1a:8e:68:b3:17:05:b7:89:dc:b2:30:43:
        22:62:ae:9a:87:67:39:6c:3a:c7:1c:87:10:a3:70:c0:0c:3c:
        e0:46:99:68:e9:74:ea:94:2e:82:e5:c1:7f:44:16:10:40:da:
        b1:19:07:58:9a:9a:06:d4:27:93:39:79:13:44:b9:b9:bc:c5:
        1e:81:6b:0f:f4:39:1c:ff:b6:df:ad:c4:2f:63:c5:c8:c7:a0:
        99:ce:15:5d:2c:b3:b5:ec:dd:dd:f6:3e:a8:6f:28:68:01:c6:
        35:4b:67:2a:b7:cc:3f:eb:30:6d:b1:5d:5c:8a:3d:4e:3a:cd:
        e9:4c:08:fd:54:76:c3:3a:da:d2:f5:73:00:22:e2:ca:24:6b:
        4d:86:42:b3:ff:af:00:61:1e:dd:b6:6c:93:0d:e2:03:6c:e4:
        d4:af:85:37:63:8e:0c:15:63:32:ee:eb:72:05:60:1b:d6:f2:
        c1:66:89:92
-----BEGIN CERTIFICATE-----
MIIDwTCCAqmgAwIBAgIBIDANBgkqhkiG9w0BAQsFADBFMQswCQYDVQQGEwJDSDEZ
MBcGA1UEChMQTGludXggc3Ryb25nU3dhbjEbMBkGA1UEAxMSc3Ryb25nU3dhbiBS
b290IENBMB4XDTEwMDQwNjA5NTM1MFoXDTE5MDQwNDA5NTM1MFowUTELMAkGA1UE
BhMCQ0gxGTAXBgNVBAoTEExpbnV4IHN0cm9uZ1N3YW4xETAPBgNVBAsTCFJlc2Vh
cmNoMRQwEgYDVQQDEwtSZXNlYXJjaCBDQTCCASIwDQYJKoZIhvcNAQEBBQADggEP
ADCCAQoCggEBALY5sjqm4AdbWKc/T7JahWpy9xtdPbHngBN6lbnpYaHfrxnGsvmD
FCFZHCd7egRqQ/AuJHHcEv3DUdfJWWAypVnUvdlcp58hBjpxfTPXP9IDBxzQaQyU
zsExIGWOVUY2e7xJ5BKBnXVkok3htY4Hr1GdqNh+3LEmbegJBngTRSRx4PKJ54FO
/b78LUzB+rMxrzxw/lnI8jEmAtKlugQ7c9auMeFCz+NmlSfnSoWhHN5qm+0iNKy0
C+25IuE8Nq+i3jtBiI8BwBqHY3u2IuflUh9Nc9d/R6vGsRPMHs30X1Ha/m0Ug494
+wwqwfEBZRjzxMmMF/1SG4I1E3TDOJ3srjkCAwEAAaOBrzCBrDAPBgNVHRMBAf8E
BTADAQH/MAsGA1UdDwQEAwIBBjAdBgNVHQ4EFgQU53XwoPKtIM3NYCPMx8gPKfPd
VCAwbQYDVR0jBGYwZIAUXafdcAZRMn7ntm2zteXgYOouTe+hSaRHMEUxCzAJBgNV
BAYTAkNIMRkwFwYDVQQKExBMaW51eCBzdHJvbmdTd2FuMRswGQYDVQQDExJzdHJv
bmdTd2FuIFJvb3QgQ0GCAQAwDQYJKoZIhvcNAQELBQADggEBAI1toW0bLcyBXAoy
FeLKGy4SibcNBZs/roChcwUav0foyLdCYMYFKEeHOLvIsTIjifpY4MPy3SBgQ5Xp
cs5vOFwW97jM6YfByqjx4+7qTBqOaLMXBbeJ3LIwQyJirpqHZzlsOscchxCjcMAM
POBGmWjpdOqULoLlwX9EFhBA2rEZB1iamgbUJ5M5eRNEubm8xR6Baw/0ORz/tt+t
xC9jxcjHoJnOFV0ss7Xs3d32PqhvKGgBxjVLZyq3zD/rMG2xXVyKPU46zelMCP1U
dsM62tL1cwAi4soka02GQrP/rwBhHt22bJMN4gNs5NSvhTdjjgwVYzLu63IFYBvW
8sFmiZI=
-----END CERTIFICATE-----
