Certificate:
    Data:
        Version: 3 (0x2)
        Serial Number: 33 (0x21)
        Signature Algorithm: sha256WithRSAEncryption
        Issuer: C=CH, O=Linux strongSwan, CN=strongSwan Root CA
        Validity
            Not Before: Apr  6 09:54:33 2010 GMT
            Not After : Apr  4 09:54:33 2019 GMT
        Subject: C=CH, O=Linux strongSwan, OU=Sales, CN=Sales CA
        Subject Public Key Info:
            Public Key Algorithm: rsaEncryption
            RSA Public Key: (2048 bit)
                Modulus (2048 bit):
                    00:c2:4e:4d:26:99:8c:37:b9:51:1f:a1:25:ba:1d:
                    70:4e:34:58:1c:56:9b:ea:f4:16:20:fe:14:b7:36:
                    73:48:47:fd:07:16:9b:55:df:aa:77:3d:a9:a3:cf:
                    1a:8c:4e:d8:17:f0:5e:01:44:1d:f3:9d:43:31:c6:
                    ba:d8:61:b2:f7:4c:3e:49:96:3f:56:77:b8:3a:f0:
                    b1:ca:ab:98:bc:aa:e0:92:3c:ed:ec:52:7a:7d:60:
                    82:60:95:12:26:f9:e5:3e:1f:37:1a:d3:20:62:5a:
                    a1:ee:89:9f:db:fd:67:01:b6:07:e5:2b:de:71:40:
                    ff:07:5c:91:27:6a:27:17:3a:5c:bf:43:29:c4:64:
                    dd:3c:59:b6:ff:52:b8:37:ed:13:d1:bb:f3:b3:ba:
                    3c:94:b2:7f:25:18:86:57:73:d4:46:5e:e4:f4:ec:
                    52:80:1b:04:9d:03:0d:72:71:df:9e:b6:90:3b:5f:
                    41:dc:1e:cd:ab:74:2c:0c:8e:b1:56:9b:62:af:f4:
                    1b:f7:c1:67:02:cb:7a:be:2a:18:5d:be:dc:2b:2f:
                    3f:b8:cd:5e:78:51:61:e4:af:db:ee:22:da:60:23:
                    81:b0:51:23:50:37:8a:aa:14:dc:da:b5:bc:f0:2a:
                    ce:b7:a4:38:8f:d1:57:d1:eb:7b:d2:f5:af:c5:f5:
                    74:81
                Exponent: 65537 (0x10001)
        X509v3 extensions:
            X509v3 Basic Constraints: critical
                CA:TRUE
            X509v3 Key Usage: 
                Certificate Sign, CRL Sign
            X509v3 Subject Key Identifier: 
                5F:9B:13:46:F9:20:72:C8:00:D5:88:B5:A7:4C:2E:97:EA:0B:93:28
            X509v3 Authority Key Identifier: 
                keyid:5D:A7:DD:70:06:51:32:7E:E7:B6:6D:B3:B5:E5:E0:60:EA:2E:4D:EF
                DirName:/C=CH/O=Linux strongSwan/CN=strongSwan Root CA
                serial:00

    Signature Algorithm: sha256WithRSAEncryption
        24:65:4e:a5:cc:8c:7c:bb:af:ba:d6:9e:af:f4:f7:21:67:4d:
        de:9d:fb:2e:8a:90:78:fd:92:f6:12:03:9a:bb:c5:87:66:3f:
        72:38:f9:83:f6:aa:93:e7:62:34:9e:c9:f3:02:97:86:48:c8:
        c5:e7:7d:46:f3:e4:eb:ee:5e:9e:12:09:2d:20:21:42:7a:98:
        ae:be:e5:fd:5a:dd:44:9d:07:80:9e:d0:e7:78:9a:45:08:42:
        62:f3:28:50:91:4a:a7:61:5a:85:73:34:9a:e5:f8:14:f5:6b:
        97:7d:f9:a2:d6:00:be:52:da:9a:94:a1:03:e0:1b:ae:0c:3e:
        08:72:dd:2c:94:6f:8a:81:7a:99:64:dc:97:51:ff:a3:a0:03:
        92:d0:78:db:4b:88:8e:d8:fd:d6:cc:33:64:6f:9f:6f:38:44:
        82:31:a7:64:ea:37:61:ee:a7:a0:4d:2c:7b:fa:7c:b8:b1:74:
        9a:4c:fa:71:bb:66:31:98:7f:ee:dd:9e:e6:3a:64:38:6f:22:
        dd:7c:ce:bf:f6:9f:51:0b:05:03:e1:33:94:a3:62:11:90:21:
        95:66:37:33:43:ac:a1:95:00:ab:5a:e4:b1:bc:07:00:46:8b:
        4b:97:73:d7:c1:5d:64:5c:7d:f2:37:37:5f:c8:66:3f:e8:6f:
        9b:77:58:28
-----BEGIN CERTIFICATE-----
MIIDuzCCAqOgAwIBAgIBITANBgkqhkiG9w0BAQsFADBFMQswCQYDVQQGEwJDSDEZ
MBcGA1UEChMQTGludXggc3Ryb25nU3dhbjEbMBkGA1UEAxMSc3Ryb25nU3dhbiBS
b290IENBMB4XDTEwMDQwNjA5NTQzM1oXDTE5MDQwNDA5NTQzM1owSzELMAkGA1UE
BhMCQ0gxGTAXBgNVBAoTEExpbnV4IHN0cm9uZ1N3YW4xDjAMBgNVBAsTBVNhbGVz
MREwDwYDVQQDEwhTYWxlcyBDQTCCASIwDQYJKoZIhvcNAQEBBQADggEPADCCAQoC
ggEBAMJOTSaZjDe5UR+hJbodcE40WBxWm+r0FiD+FLc2c0hH/QcWm1Xfqnc9qaPP
GoxO2BfwXgFEHfOdQzHGuthhsvdMPkmWP1Z3uDrwscqrmLyq4JI87exSen1ggmCV
Eib55T4fNxrTIGJaoe6Jn9v9ZwG2B+Ur3nFA/wdckSdqJxc6XL9DKcRk3TxZtv9S
uDftE9G787O6PJSyfyUYhldz1EZe5PTsUoAbBJ0DDXJx3562kDtfQdwezat0LAyO
sVabYq/0G/fBZwLLer4qGF2+3CsvP7jNXnhRYeSv2+4i2mAjgbBRI1A3iqoU3Nq1
vPAqzrekOI/RV9Hre9L1r8X1dIECAwEAAaOBrzCBrDAPBgNVHRMBAf8EBTADAQH/
MAsGA1UdDwQEAwIBBjAdBgNVHQ4EFgQUX5sTRvkgcsgA1Yi1p0wul+oLkygwbQYD
VR0jBGYwZIAUXafdcAZRMn7ntm2zteXgYOouTe+hSaRHMEUxCzAJBgNVBAYTAkNI
MRkwFwYDVQQKExBMaW51eCBzdHJvbmdTd2FuMRswGQYDVQQDExJzdHJvbmdTd2Fu
IFJvb3QgQ0GCAQAwDQYJKoZIhvcNAQELBQADggEBACRlTqXMjHy7r7rWnq/09yFn
Td6d+y6KkHj9kvYSA5q7xYdmP3I4+YP2qpPnYjSeyfMCl4ZIyMXnfUbz5OvuXp4S
CS0gIUJ6mK6+5f1a3USdB4Ce0Od4mkUIQmLzKFCRSqdhWoVzNJrl+BT1a5d9+aLW
AL5S2pqUoQPgG64MPghy3SyUb4qBeplk3JdR/6OgA5LQeNtLiI7Y/dbMM2Rvn284
RIIxp2TqN2Hup6BNLHv6fLixdJpM+nG7ZjGYf+7dnuY6ZDhvIt18zr/2n1ELBQPh
M5SjYhGQIZVmNzNDrKGVAKta5LG8BwBGi0uXc9fBXWRcffI3N1/IZj/ob5t3WCg=
-----END CERTIFICATE-----
